(dp0
S'2015'
p1
(dp2
S'Suu6_chi2_WBHT'
p3
S'/SuuToChiChiToWBHTToJets_MSuu-6000_MChi-2000_TuneCP5_13TeV-madgraph-pythia8/RunIISummer20UL16MiniAODAPVv2-106X_mcRun2_asymptotic_preVFP_v11-v1/MINIAODSIM\n'
p4
sS'Suu6_chi2_WBWB'
p5
S'/SuuToChiChiToWBWBToJets_MSuu-6000_MChi-2000_TuneCP5_13TeV-madgraph-pythia8/RunIISummer20UL16MiniAODAPVv2-106X_mcRun2_asymptotic_preVFP_v11-v2/MINIAODSIM\n'
p6
sS'Suu4_chi1p5_WBWB'
p7
S'/SuuToChiChiToWBWBToJets_MSuu-4000_MChi-1500_TuneCP5_13TeV-madgraph-pythia8/RunIISummer20UL16MiniAODAPVv2-106X_mcRun2_asymptotic_preVFP_v11-v1/MINIAODSIM\n'
p8
sS'Suu7_chi1_WBZT'
p9
S'/SuuToChiChiToWBZTToJets_MSuu-7000_MChi-1000_TuneCP5_13TeV-madgraph-pythia8/RunIISummer20UL16MiniAODAPVv2-106X_mcRun2_asymptotic_preVFP_v11-v1/MINIAODSIM\n'
p10
sS'Suu8_chi3_WBWB'
p11
S'/SuuToChiChiToWBWBToJets_MSuu-8000_MChi-3000_TuneCP5_13TeV-madgraph-pythia8/RunIISummer20UL16MiniAODAPVv2-106X_mcRun2_asymptotic_preVFP_v11-v2/MINIAODSIM\n'
p12
sS'Suu6_chi1p5_WBWB'
p13
S'/SuuToChiChiToWBWBToJets_MSuu-6000_MChi-1500_TuneCP5_13TeV-madgraph-pythia8/RunIISummer20UL16MiniAODAPVv2-106X_mcRun2_asymptotic_preVFP_v11-v1/MINIAODSIM\n'
p14
sS'Suu6_chi1_WBZT'
p15
S'/SuuToChiChiToWBZTToJets_MSuu-6000_MChi-1000_TuneCP5_13TeV-madgraph-pythia8/RunIISummer20UL16MiniAODAPVv2-106X_mcRun2_asymptotic_preVFP_v11-v1/MINIAODSIM\n'
p16
sS'Suu7_chi3_WBHT'
p17
S'/SuuToChiChiToWBHTToJets_MSuu-7000_MChi-3000_TuneCP5_13TeV-madgraph-pythia8/RunIISummer20UL16MiniAODAPVv2-106X_mcRun2_asymptotic_preVFP_v11-v3/MINIAODSIM\n'
p18
sS'Suu4_chi1p5_HTZT'
p19
S'/SuuToChiChiToHTZTToJets_MSuu-4000_MChi-1500_TuneCP5_13TeV-madgraph-pythia8/RunIISummer20UL16MiniAODAPVv2-106X_mcRun2_asymptotic_preVFP_v11-v3/MINIAODSIM\n'
p20
sS'Suu8_chi1p5_WBZT'
p21
S'/SuuToChiChiToWBZTToJets_MSuu-8000_MChi-1500_TuneCP5_13TeV-madgraph-pythia8/RunIISummer20UL16MiniAODAPVv2-106X_mcRun2_asymptotic_preVFP_v11-v3/MINIAODSIM\n'
p22
sS'Suu7_chi1_ZTZT'
p23
S'/SuuToChiChiToZTZTToJets_MSuu-7000_MChi-1000_TuneCP5_13TeV-madgraph-pythia8/RunIISummer20UL16MiniAODAPVv2-106X_mcRun2_asymptotic_preVFP_v11-v3/MINIAODSIM\n'
p24
sS'Suu8_chi1_HTHT'
p25
S'/SuuToChiChiToHTHTToJets_MSuu-8000_MChi-1000_TuneCP5_13TeV-madgraph-pythia8/RunIISummer20UL16MiniAODAPVv2-106X_mcRun2_asymptotic_preVFP_v11-v3/MINIAODSIM\n'
p26
sS'Suu7_chi2_HTZT'
p27
S'/SuuToChiChiToHTZTToJets_MSuu-7000_MChi-2000_TuneCP5_13TeV-madgraph-pythia8/RunIISummer20UL16MiniAODAPVv2-106X_mcRun2_asymptotic_preVFP_v11-v2/MINIAODSIM\n'
p28
sS'Suu7_chi1p5_WBZT'
p29
S'/SuuToChiChiToWBZTToJets_MSuu-7000_MChi-1500_TuneCP5_13TeV-madgraph-pythia8/RunIISummer20UL16MiniAODAPVv2-106X_mcRun2_asymptotic_preVFP_v11-v1/MINIAODSIM\n'
p30
sS'Suu8_chi1_WBZT'
p31
S'/SuuToChiChiToWBZTToJets_MSuu-8000_MChi-1000_TuneCP5_13TeV-madgraph-pythia8/RunIISummer20UL16MiniAODAPVv2-106X_mcRun2_asymptotic_preVFP_v11-v1/MINIAODSIM\n'
p32
sS'Suu5_chi2_ZTZT'
p33
S'/SuuToChiChiToZTZTToJets_MSuu-5000_MChi-2000_TuneCP5_13TeV-madgraph-pythia8/RunIISummer20UL16MiniAODAPVv2-106X_mcRun2_asymptotic_preVFP_v11-v3/MINIAODSIM\n'
p34
sS'Suu8_chi2_ZTZT'
p35
S'/SuuToChiChiToZTZTToJets_MSuu-8000_MChi-2000_TuneCP5_13TeV-madgraph-pythia8/RunIISummer20UL16MiniAODAPVv2-106X_mcRun2_asymptotic_preVFP_v11-v1/MINIAODSIM\n'
p36
sS'Suu4_chi1p5_HTHT'
p37
S'/SuuToChiChiToHTHTToJets_MSuu-4000_MChi-1500_TuneCP5_13TeV-madgraph-pythia8/RunIISummer20UL16MiniAODAPVv2-106X_mcRun2_asymptotic_preVFP_v11-v3/MINIAODSIM\n'
p38
sS'Suu8_chi1_WBHT'
p39
S'/SuuToChiChiToWBHTToJets_MSuu-8000_MChi-1000_TuneCP5_13TeV-madgraph-pythia8/RunIISummer20UL16MiniAODAPVv2-106X_mcRun2_asymptotic_preVFP_v11-v1/MINIAODSIM\n'
p40
sS'Suu8_chi3_WBHT'
p41
S'/SuuToChiChiToWBHTToJets_MSuu-8000_MChi-3000_TuneCP5_13TeV-madgraph-pythia8/RunIISummer20UL16MiniAODAPVv2-106X_mcRun2_asymptotic_preVFP_v11-v1/MINIAODSIM\n'
p42
sS'Suu7_chi1_HTHT'
p43
S'/SuuToChiChiToHTHTToJets_MSuu-7000_MChi-1000_TuneCP5_13TeV-madgraph-pythia8/RunIISummer20UL16MiniAODAPVv2-106X_mcRun2_asymptotic_preVFP_v11-v1/MINIAODSIM\n'
p44
sS'Suu7_chi3_HTHT'
p45
S'/SuuToChiChiToHTHTToJets_MSuu-7000_MChi-3000_TuneCP5_13TeV-madgraph-pythia8/RunIISummer20UL16MiniAODAPVv2-106X_mcRun2_asymptotic_preVFP_v11-v1/MINIAODSIM\n'
p46
sS'Suu4_chi1_HTZT'
p47
S'/SuuToChiChiToHTZTToJets_MSuu-4000_MChi-1000_TuneCP5_13TeV-madgraph-pythia8/RunIISummer20UL16MiniAODAPVv2-106X_mcRun2_asymptotic_preVFP_v11-v1/MINIAODSIM\n'
p48
sS'Suu6_chi1_HTHT'
p49
S'/SuuToChiChiToHTHTToJets_MSuu-6000_MChi-1000_TuneCP5_13TeV-madgraph-pythia8/RunIISummer20UL16MiniAODAPVv2-106X_mcRun2_asymptotic_preVFP_v11-v1/MINIAODSIM\n'
p50
sS'Suu4_chi1_ZTZT'
p51
S'/SuuToChiChiToZTZTToJets_MSuu-4000_MChi-1000_TuneCP5_13TeV-madgraph-pythia8/RunIISummer20UL16MiniAODAPVv2-106X_mcRun2_asymptotic_preVFP_v11-v1/MINIAODSIM\n'
p52
sS'Suu5_chi1p5_HTZT'
p53
S'/SuuToChiChiToHTZTToJets_MSuu-5000_MChi-1500_TuneCP5_13TeV-madgraph-pythia8/RunIISummer20UL16MiniAODAPVv2-106X_mcRun2_asymptotic_preVFP_v11-v2/MINIAODSIM\n'
p54
sS'Suu5_chi1p5_WBHT'
p55
S'/SuuToChiChiToWBHTToJets_MSuu-5000_MChi-1500_TuneCP5_13TeV-madgraph-pythia8/RunIISummer20UL16MiniAODAPVv2-106X_mcRun2_asymptotic_preVFP_v11-v1/MINIAODSIM\n'
p56
sS'Suu7_chi3_WBZT'
p57
S'/SuuToChiChiToWBZTToJets_MSuu-7000_MChi-3000_TuneCP5_13TeV-madgraph-pythia8/RunIISummer20UL16MiniAODAPVv2-106X_mcRun2_asymptotic_preVFP_v11-v1/MINIAODSIM\n'
p58
sS'Suu6_chi2_HTHT'
p59
S'/SuuToChiChiToHTHTToJets_MSuu-6000_MChi-2000_TuneCP5_13TeV-madgraph-pythia8/RunIISummer20UL16MiniAODAPVv2-106X_mcRun2_asymptotic_preVFP_v11-v2/MINIAODSIM\n'
p60
sS'Suu6_chi1p5_ZTZT'
p61
S'/SuuToChiChiToZTZTToJets_MSuu-6000_MChi-1500_TuneCP5_13TeV-madgraph-pythia8/RunIISummer20UL16MiniAODAPVv2-106X_mcRun2_asymptotic_preVFP_v11-v1/MINIAODSIM\n'
p62
sS'Suu4_chi1p5_ZTZT'
p63
S'/SuuToChiChiToZTZTToJets_MSuu-4000_MChi-1500_TuneCP5_13TeV-madgraph-pythia8/RunIISummer20UL16MiniAODAPVv2-106X_mcRun2_asymptotic_preVFP_v11-v3/MINIAODSIM\n'
p64
sS'Suu6_chi12p5_WBWB'
p65
S'/SuuToChiChiToWBWBToJets_MSuu-6000_MChi-2500_TuneCP5_13TeV-madgraph-pythia8/RunIISummer20UL16MiniAODAPVv2-106X_mcRun2_asymptotic_preVFP_v11-v1/MINIAODSIM\n'
p66
sS'Suu8_chi2_HTZT'
p67
S'/SuuToChiChiToHTZTToJets_MSuu-8000_MChi-2000_TuneCP5_13TeV-madgraph-pythia8/RunIISummer20UL16MiniAODAPVv2-106X_mcRun2_asymptotic_preVFP_v11-v1/MINIAODSIM\n'
p68
sS'Suu7_chi12p5_WBZT'
p69
S'/SuuToChiChiToWBZTToJets_MSuu-7000_MChi-2500_TuneCP5_13TeV-madgraph-pythia8/RunIISummer20UL16MiniAODAPVv2-106X_mcRun2_asymptotic_preVFP_v11-v1/MINIAODSIM\n'
p70
sS'Suu8_chi3_HTZT'
p71
S'/SuuToChiChiToHTZTToJets_MSuu-8000_MChi-3000_TuneCP5_13TeV-madgraph-pythia8/RunIISummer20UL16MiniAODAPVv2-106X_mcRun2_asymptotic_preVFP_v11-v1/MINIAODSIM\n'
p72
sS'Suu6_chi12p5_ZTZT'
p73
S'/SuuToChiChiToZTZTToJets_MSuu-6000_MChi-2500_TuneCP5_13TeV-madgraph-pythia8/RunIISummer20UL16MiniAODAPVv2-106X_mcRun2_asymptotic_preVFP_v11-v3/MINIAODSIM\n'
p74
sS'Suu7_chi1_HTZT'
p75
S'/SuuToChiChiToHTZTToJets_MSuu-7000_MChi-1000_TuneCP5_13TeV-madgraph-pythia8/RunIISummer20UL16MiniAODAPVv2-106X_mcRun2_asymptotic_preVFP_v11-v1/MINIAODSIM\n'
p76
sS'Suu4_chi1p5_WBHT'
p77
S'/SuuToChiChiToWBHTToJets_MSuu-4000_MChi-1500_TuneCP5_13TeV-madgraph-pythia8/RunIISummer20UL16MiniAODAPVv2-106X_mcRun2_asymptotic_preVFP_v11-v1/MINIAODSIM\n'
p78
sS'Suu8_chi12p5_WBWB'
p79
S'/SuuToChiChiToWBWBToJets_MSuu-8000_MChi-2500_TuneCP5_13TeV-madgraph-pythia8/RunIISummer20UL16MiniAODAPVv2-106X_mcRun2_asymptotic_preVFP_v11-v1/MINIAODSIM\n'
p80
sS'Suu5_chi1p5_HTHT'
p81
S'/SuuToChiChiToHTHTToJets_MSuu-5000_MChi-1500_TuneCP5_13TeV-madgraph-pythia8/RunIISummer20UL16MiniAODAPVv2-106X_mcRun2_asymptotic_preVFP_v11-v1/MINIAODSIM\n'
p82
sS'Suu5_chi2_WBWB'
p83
S'/SuuToChiChiToWBWBToJets_MSuu-5000_MChi-2000_TuneCP5_13TeV-madgraph-pythia8/RunIISummer20UL16MiniAODAPVv2-106X_mcRun2_asymptotic_preVFP_v11-v2/MINIAODSIM\n'
p84
sS'Suu8_chi1_HTZT'
p85
S'/SuuToChiChiToHTZTToJets_MSuu-8000_MChi-1000_TuneCP5_13TeV-madgraph-pythia8/RunIISummer20UL16MiniAODAPVv2-106X_mcRun2_asymptotic_preVFP_v11-v1/MINIAODSIM\n'
p86
sS'Suu4_chi1_WBHT'
p87
S'/SuuToChiChiToWBHTToJets_MSuu-4000_MChi-1000_TuneCP5_13TeV-madgraph-pythia8/RunIISummer20UL16MiniAODAPVv2-106X_mcRun2_asymptotic_preVFP_v11-v3/MINIAODSIM\n'
p88
sS'Suu8_chi12p5_ZTZT'
p89
S'/SuuToChiChiToZTZTToJets_MSuu-8000_MChi-2500_TuneCP5_13TeV-madgraph-pythia8/RunIISummer20UL16MiniAODAPVv2-106X_mcRun2_asymptotic_preVFP_v11-v2/MINIAODSIM\n'
p90
sS'Suu8_chi2_WBHT'
p91
S'/SuuToChiChiToWBHTToJets_MSuu-8000_MChi-2000_TuneCP5_13TeV-madgraph-pythia8/RunIISummer20UL16MiniAODAPVv2-106X_mcRun2_asymptotic_preVFP_v11-v1/MINIAODSIM\n'
p92
sS'Suu5_chi1_WBZT'
p93
S'/SuuToChiChiToWBZTToJets_MSuu-5000_MChi-1000_TuneCP5_13TeV-madgraph-pythia8/RunIISummer20UL16MiniAODAPVv2-106X_mcRun2_asymptotic_preVFP_v11-v1/MINIAODSIM\n'
p94
sS'Suu5_chi1p5_WBWB'
p95
S'/SuuToChiChiToWBWBToJets_MSuu-5000_MChi-1500_TuneCP5_13TeV-madgraph-pythia8/RunIISummer20UL16MiniAODAPVv2-106X_mcRun2_asymptotic_preVFP_v11-v3/MINIAODSIM\n'
p96
sS'Suu8_chi1_ZTZT'
p97
S'/SuuToChiChiToZTZTToJets_MSuu-8000_MChi-1000_TuneCP5_13TeV-madgraph-pythia8/RunIISummer20UL16MiniAODAPVv2-106X_mcRun2_asymptotic_preVFP_v11-v1/MINIAODSIM\n'
p98
sS'Suu8_chi3_HTHT'
p99
S'/SuuToChiChiToHTHTToJets_MSuu-8000_MChi-3000_TuneCP5_13TeV-madgraph-pythia8/RunIISummer20UL16MiniAODAPVv2-106X_mcRun2_asymptotic_preVFP_v11-v3/MINIAODSIM\n'
p100
sS'Suu7_chi3_WBWB'
p101
S'/SuuToChiChiToWBWBToJets_MSuu-7000_MChi-3000_TuneCP5_13TeV-madgraph-pythia8/RunIISummer20UL16MiniAODAPVv2-106X_mcRun2_asymptotic_preVFP_v11-v3/MINIAODSIM\n'
p102
sS'Suu8_chi12p5_HTHT'
p103
S'/SuuToChiChiToHTHTToJets_MSuu-8000_MChi-2500_TuneCP5_13TeV-madgraph-pythia8/RunIISummer20UL16MiniAODAPVv2-106X_mcRun2_asymptotic_preVFP_v11-v3/MINIAODSIM\n'
p104
sS'Suu8_chi12p5_WBZT'
p105
S'/SuuToChiChiToWBZTToJets_MSuu-8000_MChi-2500_TuneCP5_13TeV-madgraph-pythia8/RunIISummer20UL16MiniAODAPVv2-106X_mcRun2_asymptotic_preVFP_v11-v3/MINIAODSIM\n'
p106
sS'Suu7_chi1_WBWB'
p107
S'/SuuToChiChiToWBWBToJets_MSuu-7000_MChi-1000_TuneCP5_13TeV-madgraph-pythia8/RunIISummer20UL16MiniAODAPVv2-106X_mcRun2_asymptotic_preVFP_v11-v1/MINIAODSIM\n'
p108
sS'Suu7_chi12p5_HTZT'
p109
S'/SuuToChiChiToHTZTToJets_MSuu-7000_MChi-2500_TuneCP5_13TeV-madgraph-pythia8/RunIISummer20UL16MiniAODAPVv2-106X_mcRun2_asymptotic_preVFP_v11-v3/MINIAODSIM\n'
p110
sS'Suu7_chi1p5_HTHT'
p111
S'/SuuToChiChiToHTHTToJets_MSuu-7000_MChi-1500_TuneCP5_13TeV-madgraph-pythia8/RunIISummer20UL16MiniAODAPVv2-106X_mcRun2_asymptotic_preVFP_v11-v1/MINIAODSIM\n'
p112
sS'Suu5_chi1_HTZT'
p113
S'/SuuToChiChiToHTZTToJets_MSuu-5000_MChi-1000_TuneCP5_13TeV-madgraph-pythia8/RunIISummer20UL16MiniAODAPVv2-106X_mcRun2_asymptotic_preVFP_v11-v1/MINIAODSIM\n'
p114
sS'Suu6_chi1p5_HTZT'
p115
S'/SuuToChiChiToHTZTToJets_MSuu-6000_MChi-1500_TuneCP5_13TeV-madgraph-pythia8/RunIISummer20UL16MiniAODAPVv2-106X_mcRun2_asymptotic_preVFP_v11-v1/MINIAODSIM\n'
p116
sS'Suu7_chi3_ZTZT'
p117
S'/SuuToChiChiToZTZTToJets_MSuu-7000_MChi-3000_TuneCP5_13TeV-madgraph-pythia8/RunIISummer20UL16MiniAODAPVv2-106X_mcRun2_asymptotic_preVFP_v11-v2/MINIAODSIM\n'
p118
sS'Suu5_chi1_WBHT'
p119
S'/SuuToChiChiToWBHTToJets_MSuu-5000_MChi-1000_TuneCP5_13TeV-madgraph-pythia8/RunIISummer20UL16MiniAODAPVv2-106X_mcRun2_asymptotic_preVFP_v11-v1/MINIAODSIM\n'
p120
sS'Suu6_chi12p5_HTZT'
p121
S'/SuuToChiChiToHTZTToJets_MSuu-6000_MChi-2500_TuneCP5_13TeV-madgraph-pythia8/RunIISummer20UL16MiniAODAPVv2-106X_mcRun2_asymptotic_preVFP_v11-v3/MINIAODSIM\n'
p122
sS'Suu7_chi1p5_WBWB'
p123
S'/SuuToChiChiToWBWBToJets_MSuu-7000_MChi-1500_TuneCP5_13TeV-madgraph-pythia8/RunIISummer20UL16MiniAODAPVv2-106X_mcRun2_asymptotic_preVFP_v11-v3/MINIAODSIM\n'
p124
sS'Suu8_chi1p5_HTHT'
p125
S'/SuuToChiChiToHTHTToJets_MSuu-8000_MChi-1500_TuneCP5_13TeV-madgraph-pythia8/RunIISummer20UL16MiniAODAPVv2-106X_mcRun2_asymptotic_preVFP_v11-v3/MINIAODSIM\n'
p126
sS'Suu8_chi12p5_WBHT'
p127
S'/SuuToChiChiToWBHTToJets_MSuu-8000_MChi-2500_TuneCP5_13TeV-madgraph-pythia8/RunIISummer20UL16MiniAODAPVv2-106X_mcRun2_asymptotic_preVFP_v11-v1/MINIAODSIM\n'
p128
sS'Suu4_chi1_WBZT'
p129
S'/SuuToChiChiToWBZTToJets_MSuu-4000_MChi-1000_TuneCP5_13TeV-madgraph-pythia8/RunIISummer20UL16MiniAODAPVv2-106X_mcRun2_asymptotic_preVFP_v11-v1/MINIAODSIM\n'
p130
sS'Suu6_chi2_WBZT'
p131
S'/SuuToChiChiToWBZTToJets_MSuu-6000_MChi-2000_TuneCP5_13TeV-madgraph-pythia8/RunIISummer20UL16MiniAODAPVv2-106X_mcRun2_asymptotic_preVFP_v11-v1/MINIAODSIM\n'
p132
sS'Suu5_chi2_HTHT'
p133
S'/SuuToChiChiToHTHTToJets_MSuu-5000_MChi-2000_TuneCP5_13TeV-madgraph-pythia8/RunIISummer20UL16MiniAODAPVv2-106X_mcRun2_asymptotic_preVFP_v11-v3/MINIAODSIM\n'
p134
sS'Suu6_chi1p5_WBZT'
p135
S'/SuuToChiChiToWBZTToJets_MSuu-6000_MChi-1500_TuneCP5_13TeV-madgraph-pythia8/RunIISummer20UL16MiniAODAPVv2-106X_mcRun2_asymptotic_preVFP_v11-v1/MINIAODSIM\n'
p136
sS'Suu8_chi1_WBWB'
p137
S'/SuuToChiChiToWBWBToJets_MSuu-8000_MChi-1000_TuneCP5_13TeV-madgraph-pythia8/RunIISummer20UL16MiniAODAPVv2-106X_mcRun2_asymptotic_preVFP_v11-v3/MINIAODSIM\n'
p138
sS'Suu6_chi1_WBWB'
p139
S'/SuuToChiChiToWBWBToJets_MSuu-6000_MChi-1000_TuneCP5_13TeV-madgraph-pythia8/RunIISummer20UL16MiniAODAPVv2-106X_mcRun2_asymptotic_preVFP_v11-v3/MINIAODSIM\n'
p140
sS'Suu8_chi2_WBWB'
p141
S'/SuuToChiChiToWBWBToJets_MSuu-8000_MChi-2000_TuneCP5_13TeV-madgraph-pythia8/RunIISummer20UL16MiniAODAPVv2-106X_mcRun2_asymptotic_preVFP_v11-v1/MINIAODSIM\n'
p142
sS'Suu6_chi1_WBHT'
p143
S'/SuuToChiChiToWBHTToJets_MSuu-6000_MChi-1000_TuneCP5_13TeV-madgraph-pythia8/RunIISummer20UL16MiniAODAPVv2-106X_mcRun2_asymptotic_preVFP_v11-v1/MINIAODSIM\n'
p144
sS'Suu7_chi12p5_WBHT'
p145
S'/SuuToChiChiToWBHTToJets_MSuu-7000_MChi-2500_TuneCP5_13TeV-madgraph-pythia8/RunIISummer20UL16MiniAODAPVv2-106X_mcRun2_asymptotic_preVFP_v11-v1/MINIAODSIM\n'
p146
sS'Suu5_chi2_WBHT'
p147
S'/SuuToChiChiToWBHTToJets_MSuu-5000_MChi-2000_TuneCP5_13TeV-madgraph-pythia8/RunIISummer20UL16MiniAODAPVv2-106X_mcRun2_asymptotic_preVFP_v11-v1/MINIAODSIM\n'
p148
sS'Suu8_chi2_HTHT'
p149
S'/SuuToChiChiToHTHTToJets_MSuu-8000_MChi-2000_TuneCP5_13TeV-madgraph-pythia8/RunIISummer20UL16MiniAODAPVv2-106X_mcRun2_asymptotic_preVFP_v11-v3/MINIAODSIM\n'
p150
sS'Suu7_chi2_HTHT'
p151
S'/SuuToChiChiToHTHTToJets_MSuu-7000_MChi-2000_TuneCP5_13TeV-madgraph-pythia8/RunIISummer20UL16MiniAODAPVv2-106X_mcRun2_asymptotic_preVFP_v11-v1/MINIAODSIM\n'
p152
sS'Suu7_chi2_WBZT'
p153
S'/SuuToChiChiToWBZTToJets_MSuu-7000_MChi-2000_TuneCP5_13TeV-madgraph-pythia8/RunIISummer20UL16MiniAODAPVv2-106X_mcRun2_asymptotic_preVFP_v11-v1/MINIAODSIM\n'
p154
sS'Suu4_chi1p5_WBZT'
p155
S'/SuuToChiChiToWBZTToJets_MSuu-4000_MChi-1500_TuneCP5_13TeV-madgraph-pythia8/RunIISummer20UL16MiniAODAPVv2-106X_mcRun2_asymptotic_preVFP_v11-v1/MINIAODSIM\n'
p156
sS'Suu8_chi1p5_HTZT'
p157
S'/SuuToChiChiToHTZTToJets_MSuu-8000_MChi-1500_TuneCP5_13TeV-madgraph-pythia8/RunIISummer20UL16MiniAODAPVv2-106X_mcRun2_asymptotic_preVFP_v11-v1/MINIAODSIM\n'
p158
sS'Suu7_chi1p5_WBHT'
p159
S'/SuuToChiChiToWBHTToJets_MSuu-7000_MChi-1500_TuneCP5_13TeV-madgraph-pythia8/RunIISummer20UL16MiniAODAPVv2-106X_mcRun2_asymptotic_preVFP_v11-v1/MINIAODSIM\n'
p160
sS'Suu4_chi1_HTHT'
p161
S'/SuuToChiChiToHTHTToJets_MSuu-4000_MChi-1000_TuneCP5_13TeV-madgraph-pythia8/RunIISummer20UL16MiniAODAPVv2-106X_mcRun2_asymptotic_preVFP_v11-v1/MINIAODSIM\n'
p162
sS'Suu7_chi2_WBHT'
p163
S'/SuuToChiChiToWBHTToJets_MSuu-7000_MChi-2000_TuneCP5_13TeV-madgraph-pythia8/RunIISummer20UL16MiniAODAPVv2-106X_mcRun2_asymptotic_preVFP_v11-v3/MINIAODSIM\n'
p164
sS'Suu6_chi1p5_HTHT'
p165
S'/SuuToChiChiToHTHTToJets_MSuu-6000_MChi-1500_TuneCP5_13TeV-madgraph-pythia8/RunIISummer20UL16MiniAODAPVv2-106X_mcRun2_asymptotic_preVFP_v11-v1/MINIAODSIM\n'
p166
sS'Suu6_chi1p5_WBHT'
p167
S'/SuuToChiChiToWBHTToJets_MSuu-6000_MChi-1500_TuneCP5_13TeV-madgraph-pythia8/RunIISummer20UL16MiniAODAPVv2-106X_mcRun2_asymptotic_preVFP_v11-v1/MINIAODSIM\n'
p168
sS'Suu7_chi2_WBWB'
p169
S'/SuuToChiChiToWBWBToJets_MSuu-7000_MChi-2000_TuneCP5_13TeV-madgraph-pythia8/RunIISummer20UL16MiniAODAPVv2-106X_mcRun2_asymptotic_preVFP_v11-v1/MINIAODSIM\n'
p170
sS'Suu7_chi1p5_HTZT'
p171
S'/SuuToChiChiToHTZTToJets_MSuu-7000_MChi-1500_TuneCP5_13TeV-madgraph-pythia8/RunIISummer20UL16MiniAODAPVv2-106X_mcRun2_asymptotic_preVFP_v11-v3/MINIAODSIM\n'
p172
sS'Suu8_chi3_WBZT'
p173
S'/SuuToChiChiToWBZTToJets_MSuu-8000_MChi-3000_TuneCP5_13TeV-madgraph-pythia8/RunIISummer20UL16MiniAODAPVv2-106X_mcRun2_asymptotic_preVFP_v11-v1/MINIAODSIM\n'
p174
sS'Suu4_chi1_WBWB'
p175
S'/SuuToChiChiToWBWBToJets_MSuu-4000_MChi-1000_TuneCP5_13TeV-madgraph-pythia8/RunIISummer20UL16MiniAODAPVv2-106X_mcRun2_asymptotic_preVFP_v11-v1/MINIAODSIM\n'
p176
sS'Suu5_chi2_HTZT'
p177
S'/SuuToChiChiToHTZTToJets_MSuu-5000_MChi-2000_TuneCP5_13TeV-madgraph-pythia8/RunIISummer20UL16MiniAODAPVv2-106X_mcRun2_asymptotic_preVFP_v11-v3/MINIAODSIM\n'
p178
sS'Suu5_chi1_HTHT'
p179
S'/SuuToChiChiToHTHTToJets_MSuu-5000_MChi-1000_TuneCP5_13TeV-madgraph-pythia8/RunIISummer20UL16MiniAODAPVv2-106X_mcRun2_asymptotic_preVFP_v11-v1/MINIAODSIM\n'
p180
sS'Suu8_chi2_WBZT'
p181
S'/SuuToChiChiToWBZTToJets_MSuu-8000_MChi-2000_TuneCP5_13TeV-madgraph-pythia8/RunIISummer20UL16MiniAODAPVv2-106X_mcRun2_asymptotic_preVFP_v11-v1/MINIAODSIM\n'
p182
sS'Suu5_chi1p5_WBZT'
p183
S'/SuuToChiChiToWBZTToJets_MSuu-5000_MChi-1500_TuneCP5_13TeV-madgraph-pythia8/RunIISummer20UL16MiniAODAPVv2-106X_mcRun2_asymptotic_preVFP_v11-v1/MINIAODSIM\n'
p184
sS'Suu5_chi1_ZTZT'
p185
S'/SuuToChiChiToZTZTToJets_MSuu-5000_MChi-1000_TuneCP5_13TeV-madgraph-pythia8/RunIISummer20UL16MiniAODAPVv2-106X_mcRun2_asymptotic_preVFP_v11-v1/MINIAODSIM\n'
p186
sS'Suu7_chi1_WBHT'
p187
S'/SuuToChiChiToWBHTToJets_MSuu-7000_MChi-1000_TuneCP5_13TeV-madgraph-pythia8/RunIISummer20UL16MiniAODAPVv2-106X_mcRun2_asymptotic_preVFP_v11-v1/MINIAODSIM\n'
p188
sS'Suu5_chi1_WBWB'
p189
S'/SuuToChiChiToWBWBToJets_MSuu-5000_MChi-1000_TuneCP5_13TeV-madgraph-pythia8/RunIISummer20UL16MiniAODAPVv2-106X_mcRun2_asymptotic_preVFP_v11-v1/MINIAODSIM\n'
p190
sS'Suu6_chi12p5_WBHT'
p191
S'/SuuToChiChiToWBHTToJets_MSuu-6000_MChi-2500_TuneCP5_13TeV-madgraph-pythia8/RunIISummer20UL16MiniAODAPVv2-106X_mcRun2_asymptotic_preVFP_v11-v1/MINIAODSIM\n'
p192
sS'Suu5_chi2_WBZT'
p193
S'/SuuToChiChiToWBZTToJets_MSuu-5000_MChi-2000_TuneCP5_13TeV-madgraph-pythia8/RunIISummer20UL16MiniAODAPVv2-106X_mcRun2_asymptotic_preVFP_v11-v3/MINIAODSIM\n'
p194
sS'Suu7_chi2_ZTZT'
p195
S'/SuuToChiChiToZTZTToJets_MSuu-7000_MChi-2000_TuneCP5_13TeV-madgraph-pythia8/RunIISummer20UL16MiniAODAPVv2-106X_mcRun2_asymptotic_preVFP_v11-v1/MINIAODSIM\n'
p196
sS'Suu7_chi12p5_ZTZT'
p197
S'/SuuToChiChiToZTZTToJets_MSuu-7000_MChi-2500_TuneCP5_13TeV-madgraph-pythia8/RunIISummer20UL16MiniAODAPVv2-106X_mcRun2_asymptotic_preVFP_v11-v3/MINIAODSIM\n'
p198
sS'Suu6_chi1_HTZT'
p199
S'/SuuToChiChiToHTZTToJets_MSuu-6000_MChi-1000_TuneCP5_13TeV-madgraph-pythia8/RunIISummer20UL16MiniAODAPVv2-106X_mcRun2_asymptotic_preVFP_v11-v3/MINIAODSIM\n'
p200
sS'Suu8_chi1p5_ZTZT'
p201
S'/SuuToChiChiToZTZTToJets_MSuu-8000_MChi-1500_TuneCP5_13TeV-madgraph-pythia8/RunIISummer20UL16MiniAODAPVv2-106X_mcRun2_asymptotic_preVFP_v11-v1/MINIAODSIM\n'
p202
sS'Suu7_chi3_HTZT'
p203
S'/SuuToChiChiToHTZTToJets_MSuu-7000_MChi-3000_TuneCP5_13TeV-madgraph-pythia8/RunIISummer20UL16MiniAODAPVv2-106X_mcRun2_asymptotic_preVFP_v11-v3/MINIAODSIM\n'
p204
sS'Suu7_chi12p5_WBWB'
p205
S'/SuuToChiChiToWBWBToJets_MSuu-7000_MChi-2500_TuneCP5_13TeV-madgraph-pythia8/RunIISummer20UL16MiniAODAPVv2-106X_mcRun2_asymptotic_preVFP_v11-v3/MINIAODSIM\n'
p206
sS'Suu7_chi1p5_ZTZT'
p207
S'/SuuToChiChiToZTZTToJets_MSuu-7000_MChi-1500_TuneCP5_13TeV-madgraph-pythia8/RunIISummer20UL16MiniAODAPVv2-106X_mcRun2_asymptotic_preVFP_v11-v3/MINIAODSIM\n'
p208
sS'Suu6_chi12p5_WBZT'
p209
S'/SuuToChiChiToWBZTToJets_MSuu-6000_MChi-2500_TuneCP5_13TeV-madgraph-pythia8/RunIISummer20UL16MiniAODAPVv2-106X_mcRun2_asymptotic_preVFP_v11-v1/MINIAODSIM\n'
p210
sS'Suu8_chi12p5_HTZT'
p211
S'/SuuToChiChiToHTZTToJets_MSuu-8000_MChi-2500_TuneCP5_13TeV-madgraph-pythia8/RunIISummer20UL16MiniAODAPVv2-106X_mcRun2_asymptotic_preVFP_v11-v2/MINIAODSIM\n'
p212
sS'Suu6_chi1_ZTZT'
p213
S'/SuuToChiChiToZTZTToJets_MSuu-6000_MChi-1000_TuneCP5_13TeV-madgraph-pythia8/RunIISummer20UL16MiniAODAPVv2-106X_mcRun2_asymptotic_preVFP_v11-v1/MINIAODSIM\n'
p214
sS'Suu8_chi1p5_WBWB'
p215
S'/SuuToChiChiToWBWBToJets_MSuu-8000_MChi-1500_TuneCP5_13TeV-madgraph-pythia8/RunIISummer20UL16MiniAODAPVv2-106X_mcRun2_asymptotic_preVFP_v11-v3/MINIAODSIM\n'
p216
sS'Suu6_chi12p5_HTHT'
p217
S'/SuuToChiChiToHTHTToJets_MSuu-6000_MChi-2500_TuneCP5_13TeV-madgraph-pythia8/RunIISummer20UL16MiniAODAPVv2-106X_mcRun2_asymptotic_preVFP_v11-v3/MINIAODSIM\n'
p218
sS'Suu8_chi1p5_WBHT'
p219
S'/SuuToChiChiToWBHTToJets_MSuu-8000_MChi-1500_TuneCP5_13TeV-madgraph-pythia8/RunIISummer20UL16MiniAODAPVv2-106X_mcRun2_asymptotic_preVFP_v11-v1/MINIAODSIM\n'
p220
ssS'2017'
p221
(dp222
S'Suu6_chi2_WBHT'
p223
S'/SuuToChiChiToWBHTToJets_MSuu-6000_MChi-2000_TuneCP5_13TeV-madgraph-pythia8/RunIISummer20UL17MiniAODv2-106X_mc2017_realistic_v9-v3/MINIAODSIM\n'
p224
sS'Suu6_chi2_WBWB'
p225
S'/SuuToChiChiToWBWBToJets_MSuu-6000_MChi-2000_TuneCP5_13TeV-madgraph-pythia8/RunIISummer20UL17MiniAODv2-106X_mc2017_realistic_v9-v2/MINIAODSIM\n'
p226
sS'Suu4_chi1p5_WBWB'
p227
S'/SuuToChiChiToWBWBToJets_MSuu-4000_MChi-1500_TuneCP5_13TeV-madgraph-pythia8/RunIISummer20UL17MiniAODv2-106X_mc2017_realistic_v9-v3/MINIAODSIM\n'
p228
sS'Suu7_chi1_WBZT'
p229
S'/SuuToChiChiToWBZTToJets_MSuu-7000_MChi-1000_TuneCP5_13TeV-madgraph-pythia8/RunIISummer20UL17MiniAODv2-106X_mc2017_realistic_v9-v3/MINIAODSIM\n'
p230
sS'Suu8_chi3_WBWB'
p231
S'/SuuToChiChiToWBWBToJets_MSuu-8000_MChi-3000_TuneCP5_13TeV-madgraph-pythia8/RunIISummer20UL17MiniAODv2-106X_mc2017_realistic_v9-v2/MINIAODSIM\n'
p232
sS'Suu6_chi1p5_WBWB'
p233
S'/SuuToChiChiToWBWBToJets_MSuu-6000_MChi-1500_TuneCP5_13TeV-madgraph-pythia8/RunIISummer20UL17MiniAODv2-106X_mc2017_realistic_v9-v1/MINIAODSIM\n'
p234
sS'Suu6_chi1_WBZT'
p235
S'/SuuToChiChiToWBZTToJets_MSuu-6000_MChi-1000_TuneCP5_13TeV-madgraph-pythia8/RunIISummer20UL17MiniAODv2-106X_mc2017_realistic_v9-v3/MINIAODSIM\n'
p236
sS'Suu7_chi3_WBHT'
p237
S'/SuuToChiChiToWBHTToJets_MSuu-7000_MChi-3000_TuneCP5_13TeV-madgraph-pythia8/RunIISummer20UL17MiniAODv2-106X_mc2017_realistic_v9-v3/MINIAODSIM\n'
p238
sS'Suu4_chi1p5_HTZT'
p239
S'/SuuToChiChiToHTZTToJets_MSuu-4000_MChi-1500_TuneCP5_13TeV-madgraph-pythia8/RunIISummer20UL17MiniAODv2-106X_mc2017_realistic_v9-v3/MINIAODSIM\n'
p240
sS'Suu8_chi1p5_WBZT'
p241
S'/SuuToChiChiToWBZTToJets_MSuu-8000_MChi-1500_TuneCP5_13TeV-madgraph-pythia8/RunIISummer20UL17MiniAODv2-106X_mc2017_realistic_v9-v1/MINIAODSIM\n'
p242
sS'Suu7_chi1_ZTZT'
p243
S'/SuuToChiChiToZTZTToJets_MSuu-7000_MChi-1000_TuneCP5_13TeV-madgraph-pythia8/RunIISummer20UL17MiniAODv2-106X_mc2017_realistic_v9-v3/MINIAODSIM\n'
p244
sS'Suu8_chi1_HTHT'
p245
S'/SuuToChiChiToHTHTToJets_MSuu-8000_MChi-1000_TuneCP5_13TeV-madgraph-pythia8/RunIISummer20UL17MiniAODv2-106X_mc2017_realistic_v9-v3/MINIAODSIM\n'
p246
sS'Suu7_chi2_HTZT'
p247
S'/SuuToChiChiToHTZTToJets_MSuu-7000_MChi-2000_TuneCP5_13TeV-madgraph-pythia8/RunIISummer20UL17MiniAODv2-106X_mc2017_realistic_v9-v2/MINIAODSIM\n'
p248
sS'Suu7_chi1p5_WBZT'
p249
S'/SuuToChiChiToWBZTToJets_MSuu-7000_MChi-1500_TuneCP5_13TeV-madgraph-pythia8/RunIISummer20UL17MiniAODv2-106X_mc2017_realistic_v9-v1/MINIAODSIM\n'
p250
sS'Suu8_chi1_WBZT'
p251
S'/SuuToChiChiToWBZTToJets_MSuu-8000_MChi-1000_TuneCP5_13TeV-madgraph-pythia8/RunIISummer20UL17MiniAODv2-106X_mc2017_realistic_v9-v1/MINIAODSIM\n'
p252
sS'Suu5_chi2_ZTZT'
p253
S'/SuuToChiChiToZTZTToJets_MSuu-5000_MChi-2000_TuneCP5_13TeV-madgraph-pythia8/RunIISummer20UL17MiniAODv2-106X_mc2017_realistic_v9-v2/MINIAODSIM\n'
p254
sS'Suu8_chi2_ZTZT'
p255
S'/SuuToChiChiToZTZTToJets_MSuu-8000_MChi-2000_TuneCP5_13TeV-madgraph-pythia8/RunIISummer20UL17MiniAODv2-106X_mc2017_realistic_v9-v1/MINIAODSIM\n'
p256
sS'Suu4_chi1p5_HTHT'
p257
S'/SuuToChiChiToHTHTToJets_MSuu-4000_MChi-1500_TuneCP5_13TeV-madgraph-pythia8/RunIISummer20UL17MiniAODv2-106X_mc2017_realistic_v9-v3/MINIAODSIM\n'
p258
sS'Suu8_chi1_WBHT'
p259
S'/SuuToChiChiToWBHTToJets_MSuu-8000_MChi-1000_TuneCP5_13TeV-madgraph-pythia8/RunIISummer20UL17MiniAODv2-106X_mc2017_realistic_v9-v1/MINIAODSIM\n'
p260
sS'Suu8_chi3_WBHT'
p261
S'/SuuToChiChiToWBHTToJets_MSuu-8000_MChi-3000_TuneCP5_13TeV-madgraph-pythia8/RunIISummer20UL17MiniAODv2-106X_mc2017_realistic_v9-v3/MINIAODSIM\n'
p262
sS'Suu7_chi1_HTHT'
p263
S'/SuuToChiChiToHTHTToJets_MSuu-7000_MChi-1000_TuneCP5_13TeV-madgraph-pythia8/RunIISummer20UL17MiniAODv2-106X_mc2017_realistic_v9-v1/MINIAODSIM\n'
p264
sS'Suu7_chi3_HTHT'
p265
S'/SuuToChiChiToHTHTToJets_MSuu-7000_MChi-3000_TuneCP5_13TeV-madgraph-pythia8/RunIISummer20UL17MiniAODv2-106X_mc2017_realistic_v9-v3/MINIAODSIM\n'
p266
sS'Suu4_chi1_HTZT'
p267
S'/SuuToChiChiToHTZTToJets_MSuu-4000_MChi-1000_TuneCP5_13TeV-madgraph-pythia8/RunIISummer20UL17MiniAODv2-106X_mc2017_realistic_v9-v3/MINIAODSIM\n'
p268
sS'Suu6_chi1_HTHT'
p269
S'/SuuToChiChiToHTHTToJets_MSuu-6000_MChi-1000_TuneCP5_13TeV-madgraph-pythia8/RunIISummer20UL17MiniAODv2-106X_mc2017_realistic_v9-v3/MINIAODSIM\n'
p270
sS'Suu4_chi1_ZTZT'
p271
S'/SuuToChiChiToZTZTToJets_MSuu-4000_MChi-1000_TuneCP5_13TeV-madgraph-pythia8/RunIISummer20UL17MiniAODv2-106X_mc2017_realistic_v9-v3/MINIAODSIM\n'
p272
sS'Suu5_chi1p5_HTZT'
p273
S'/SuuToChiChiToHTZTToJets_MSuu-5000_MChi-1500_TuneCP5_13TeV-madgraph-pythia8/RunIISummer20UL17MiniAODv2-106X_mc2017_realistic_v9-v1/MINIAODSIM\n'
p274
sS'Suu5_chi1p5_WBHT'
p275
S'/SuuToChiChiToWBHTToJets_MSuu-5000_MChi-1500_TuneCP5_13TeV-madgraph-pythia8/RunIISummer20UL17MiniAODv2-106X_mc2017_realistic_v9-v3/MINIAODSIM\n'
p276
sS'Suu7_chi3_WBZT'
p277
S'/SuuToChiChiToWBZTToJets_MSuu-7000_MChi-3000_TuneCP5_13TeV-madgraph-pythia8/RunIISummer20UL17MiniAODv2-106X_mc2017_realistic_v9-v1/MINIAODSIM\n'
p278
sS'Suu6_chi2_HTHT'
p279
S'/SuuToChiChiToHTHTToJets_MSuu-6000_MChi-2000_TuneCP5_13TeV-madgraph-pythia8/RunIISummer20UL17MiniAODv2-106X_mc2017_realistic_v9-v2/MINIAODSIM\n'
p280
sS'Suu6_chi1p5_ZTZT'
p281
S'/SuuToChiChiToZTZTToJets_MSuu-6000_MChi-1500_TuneCP5_13TeV-madgraph-pythia8/RunIISummer20UL17MiniAODv2-106X_mc2017_realistic_v9-v1/MINIAODSIM\n'
p282
sS'Suu4_chi1p5_ZTZT'
p283
S'/SuuToChiChiToZTZTToJets_MSuu-4000_MChi-1500_TuneCP5_13TeV-madgraph-pythia8/RunIISummer20UL17MiniAODv2-106X_mc2017_realistic_v9-v3/MINIAODSIM\n'
p284
sS'Suu6_chi12p5_WBWB'
p285
S'/SuuToChiChiToWBWBToJets_MSuu-6000_MChi-2500_TuneCP5_13TeV-madgraph-pythia8/RunIISummer20UL17MiniAODv2-106X_mc2017_realistic_v9-v3/MINIAODSIM\n'
p286
sS'Suu8_chi2_HTZT'
p287
S'/SuuToChiChiToHTZTToJets_MSuu-8000_MChi-2000_TuneCP5_13TeV-madgraph-pythia8/RunIISummer20UL17MiniAODv2-106X_mc2017_realistic_v9-v1/MINIAODSIM\n'
p288
sS'Suu7_chi12p5_WBZT'
p289
S'/SuuToChiChiToWBZTToJets_MSuu-7000_MChi-2500_TuneCP5_13TeV-madgraph-pythia8/RunIISummer20UL17MiniAODv2-106X_mc2017_realistic_v9-v3/MINIAODSIM\n'
p290
sS'Suu8_chi3_HTZT'
p291
S'/SuuToChiChiToHTZTToJets_MSuu-8000_MChi-3000_TuneCP5_13TeV-madgraph-pythia8/RunIISummer20UL17MiniAODv2-106X_mc2017_realistic_v9-v3/MINIAODSIM\n'
p292
sS'Suu6_chi12p5_ZTZT'
p293
S'/SuuToChiChiToZTZTToJets_MSuu-6000_MChi-2500_TuneCP5_13TeV-madgraph-pythia8/RunIISummer20UL17MiniAODv2-106X_mc2017_realistic_v9-v2/MINIAODSIM\n'
p294
sS'Suu7_chi1_HTZT'
p295
S'/SuuToChiChiToHTZTToJets_MSuu-7000_MChi-1000_TuneCP5_13TeV-madgraph-pythia8/RunIISummer20UL17MiniAODv2-106X_mc2017_realistic_v9-v3/MINIAODSIM\n'
p296
sS'Suu4_chi1p5_WBHT'
p297
S'/SuuToChiChiToWBHTToJets_MSuu-4000_MChi-1500_TuneCP5_13TeV-madgraph-pythia8/RunIISummer20UL17MiniAODv2-106X_mc2017_realistic_v9-v1/MINIAODSIM\n'
p298
sS'Suu8_chi12p5_WBWB'
p299
S'/SuuToChiChiToWBWBToJets_MSuu-8000_MChi-2500_TuneCP5_13TeV-madgraph-pythia8/RunIISummer20UL17MiniAODv2-106X_mc2017_realistic_v9-v3/MINIAODSIM\n'
p300
sS'Suu5_chi1p5_HTHT'
p301
S'/SuuToChiChiToHTHTToJets_MSuu-5000_MChi-1500_TuneCP5_13TeV-madgraph-pythia8/RunIISummer20UL17MiniAODv2-106X_mc2017_realistic_v9-v3/MINIAODSIM\n'
p302
sS'Suu5_chi2_WBWB'
p303
S'/SuuToChiChiToWBWBToJets_MSuu-5000_MChi-2000_TuneCP5_13TeV-madgraph-pythia8/RunIISummer20UL17MiniAODv2-106X_mc2017_realistic_v9-v3/MINIAODSIM\n'
p304
sS'Suu8_chi1_HTZT'
p305
S'/SuuToChiChiToHTZTToJets_MSuu-8000_MChi-1000_TuneCP5_13TeV-madgraph-pythia8/RunIISummer20UL17MiniAODv2-106X_mc2017_realistic_v9-v3/MINIAODSIM\n'
p306
sS'Suu4_chi1_WBHT'
p307
S'/SuuToChiChiToWBHTToJets_MSuu-4000_MChi-1000_TuneCP5_13TeV-madgraph-pythia8/RunIISummer20UL17MiniAODv2-106X_mc2017_realistic_v9-v3/MINIAODSIM\n'
p308
sS'Suu8_chi12p5_ZTZT'
p309
S'/SuuToChiChiToZTZTToJets_MSuu-8000_MChi-2500_TuneCP5_13TeV-madgraph-pythia8/RunIISummer20UL17MiniAODv2-106X_mc2017_realistic_v9-v2/MINIAODSIM\n'
p310
sS'Suu8_chi2_WBHT'
p311
S'/SuuToChiChiToWBHTToJets_MSuu-8000_MChi-2000_TuneCP5_13TeV-madgraph-pythia8/RunIISummer20UL17MiniAODv2-106X_mc2017_realistic_v9-v1/MINIAODSIM\n'
p312
sS'Suu5_chi1_WBZT'
p313
S'/SuuToChiChiToWBZTToJets_MSuu-5000_MChi-1000_TuneCP5_13TeV-madgraph-pythia8/RunIISummer20UL17MiniAODv2-106X_mc2017_realistic_v9-v1/MINIAODSIM\n'
p314
sS'Suu5_chi1p5_WBWB'
p315
S'/SuuToChiChiToWBWBToJets_MSuu-5000_MChi-1500_TuneCP5_13TeV-madgraph-pythia8/RunIISummer20UL17MiniAODv2-106X_mc2017_realistic_v9-v1/MINIAODSIM\n'
p316
sS'Suu8_chi1_ZTZT'
p317
S'/SuuToChiChiToZTZTToJets_MSuu-8000_MChi-1000_TuneCP5_13TeV-madgraph-pythia8/RunIISummer20UL17MiniAODv2-106X_mc2017_realistic_v9-v1/MINIAODSIM\n'
p318
sS'Suu8_chi3_HTHT'
p319
S'/SuuToChiChiToHTHTToJets_MSuu-8000_MChi-3000_TuneCP5_13TeV-madgraph-pythia8/RunIISummer20UL17MiniAODv2-106X_mc2017_realistic_v9-v3/MINIAODSIM\n'
p320
sS'Suu7_chi3_WBWB'
p321
S'/SuuToChiChiToWBWBToJets_MSuu-7000_MChi-3000_TuneCP5_13TeV-madgraph-pythia8/RunIISummer20UL17MiniAODv2-106X_mc2017_realistic_v9-v2/MINIAODSIM\n'
p322
sS'Suu8_chi12p5_HTHT'
p323
S'/SuuToChiChiToHTHTToJets_MSuu-8000_MChi-2500_TuneCP5_13TeV-madgraph-pythia8/RunIISummer20UL17MiniAODv2-106X_mc2017_realistic_v9-v2/MINIAODSIM\n'
p324
sS'Suu8_chi12p5_WBZT'
p325
S'/SuuToChiChiToWBZTToJets_MSuu-8000_MChi-2500_TuneCP5_13TeV-madgraph-pythia8/RunIISummer20UL17MiniAODv2-106X_mc2017_realistic_v9-v3/MINIAODSIM\n'
p326
sS'Suu7_chi1_WBWB'
p327
S'/SuuToChiChiToWBWBToJets_MSuu-7000_MChi-1000_TuneCP5_13TeV-madgraph-pythia8/RunIISummer20UL17MiniAODv2-106X_mc2017_realistic_v9-v1/MINIAODSIM\n'
p328
sS'Suu7_chi12p5_HTZT'
p329
S'/SuuToChiChiToHTZTToJets_MSuu-7000_MChi-2500_TuneCP5_13TeV-madgraph-pythia8/RunIISummer20UL17MiniAODv2-106X_mc2017_realistic_v9-v1/MINIAODSIM\n'
p330
sS'Suu7_chi1p5_HTHT'
p331
S'/SuuToChiChiToHTHTToJets_MSuu-7000_MChi-1500_TuneCP5_13TeV-madgraph-pythia8/RunIISummer20UL17MiniAODv2-106X_mc2017_realistic_v9-v3/MINIAODSIM\n'
p332
sS'Suu5_chi1_HTZT'
p333
S'/SuuToChiChiToHTZTToJets_MSuu-5000_MChi-1000_TuneCP5_13TeV-madgraph-pythia8/RunIISummer20UL17MiniAODv2-106X_mc2017_realistic_v9-v3/MINIAODSIM\n'
p334
sS'Suu6_chi1p5_HTZT'
p335
S'/SuuToChiChiToHTZTToJets_MSuu-6000_MChi-1500_TuneCP5_13TeV-madgraph-pythia8/RunIISummer20UL17MiniAODv2-106X_mc2017_realistic_v9-v1/MINIAODSIM\n'
p336
sS'Suu7_chi3_ZTZT'
p337
S'/SuuToChiChiToZTZTToJets_MSuu-7000_MChi-3000_TuneCP5_13TeV-madgraph-pythia8/RunIISummer20UL17MiniAODv2-106X_mc2017_realistic_v9-v3/MINIAODSIM\n'
p338
sS'Suu5_chi1_WBHT'
p339
S'/SuuToChiChiToWBHTToJets_MSuu-5000_MChi-1000_TuneCP5_13TeV-madgraph-pythia8/RunIISummer20UL17MiniAODv2-106X_mc2017_realistic_v9-v3/MINIAODSIM\n'
p340
sS'Suu6_chi12p5_HTZT'
p341
S'/SuuToChiChiToHTZTToJets_MSuu-6000_MChi-2500_TuneCP5_13TeV-madgraph-pythia8/RunIISummer20UL17MiniAODv2-106X_mc2017_realistic_v9-v3/MINIAODSIM\n'
p342
sS'Suu7_chi1p5_WBWB'
p343
S'/SuuToChiChiToWBWBToJets_MSuu-7000_MChi-1500_TuneCP5_13TeV-madgraph-pythia8/RunIISummer20UL17MiniAODv2-106X_mc2017_realistic_v9-v1/MINIAODSIM\n'
p344
sS'Suu8_chi1p5_HTHT'
p345
S'/SuuToChiChiToHTHTToJets_MSuu-8000_MChi-1500_TuneCP5_13TeV-madgraph-pythia8/RunIISummer20UL17MiniAODv2-106X_mc2017_realistic_v9-v3/MINIAODSIM\n'
p346
sS'Suu8_chi12p5_WBHT'
p347
S'/SuuToChiChiToWBHTToJets_MSuu-8000_MChi-2500_TuneCP5_13TeV-madgraph-pythia8/RunIISummer20UL17MiniAODv2-106X_mc2017_realistic_v9-v1/MINIAODSIM\n'
p348
sS'Suu4_chi1_WBZT'
p349
S'/SuuToChiChiToWBZTToJets_MSuu-4000_MChi-1000_TuneCP5_13TeV-madgraph-pythia8/RunIISummer20UL17MiniAODv2-106X_mc2017_realistic_v9-v1/MINIAODSIM\n'
p350
sS'Suu6_chi2_WBZT'
p351
S'/SuuToChiChiToWBZTToJets_MSuu-6000_MChi-2000_TuneCP5_13TeV-madgraph-pythia8/RunIISummer20UL17MiniAODv2-106X_mc2017_realistic_v9-v1/MINIAODSIM\n'
p352
sS'Suu5_chi2_HTHT'
p353
S'/SuuToChiChiToHTHTToJets_MSuu-5000_MChi-2000_TuneCP5_13TeV-madgraph-pythia8/RunIISummer20UL17MiniAODv2-106X_mc2017_realistic_v9-v3/MINIAODSIM\n'
p354
sS'Suu6_chi1p5_WBZT'
p355
S'/SuuToChiChiToWBZTToJets_MSuu-6000_MChi-1500_TuneCP5_13TeV-madgraph-pythia8/RunIISummer20UL17MiniAODv2-106X_mc2017_realistic_v9-v3/MINIAODSIM\n'
p356
sS'Suu8_chi1_WBWB'
p357
S'/SuuToChiChiToWBWBToJets_MSuu-8000_MChi-1000_TuneCP5_13TeV-madgraph-pythia8/RunIISummer20UL17MiniAODv2-106X_mc2017_realistic_v9-v3/MINIAODSIM\n'
p358
sS'Suu6_chi1_WBWB'
p359
S'/SuuToChiChiToWBWBToJets_MSuu-6000_MChi-1000_TuneCP5_13TeV-madgraph-pythia8/RunIISummer20UL17MiniAODv2-106X_mc2017_realistic_v9-v1/MINIAODSIM\n'
p360
sS'Suu8_chi2_WBWB'
p361
S'/SuuToChiChiToWBWBToJets_MSuu-8000_MChi-2000_TuneCP5_13TeV-madgraph-pythia8/RunIISummer20UL17MiniAODv2-106X_mc2017_realistic_v9-v1/MINIAODSIM\n'
p362
sS'Suu6_chi1_WBHT'
p363
S'/SuuToChiChiToWBHTToJets_MSuu-6000_MChi-1000_TuneCP5_13TeV-madgraph-pythia8/RunIISummer20UL17MiniAODv2-106X_mc2017_realistic_v9-v3/MINIAODSIM\n'
p364
sS'Suu7_chi12p5_WBHT'
p365
S'/SuuToChiChiToWBHTToJets_MSuu-7000_MChi-2500_TuneCP5_13TeV-madgraph-pythia8/RunIISummer20UL17MiniAODv2-106X_mc2017_realistic_v9-v1/MINIAODSIM\n'
p366
sS'Suu5_chi2_WBHT'
p367
S'/SuuToChiChiToWBHTToJets_MSuu-5000_MChi-2000_TuneCP5_13TeV-madgraph-pythia8/RunIISummer20UL17MiniAODv2-106X_mc2017_realistic_v9-v1/MINIAODSIM\n'
p368
sS'Suu8_chi2_HTHT'
p369
S'/SuuToChiChiToHTHTToJets_MSuu-8000_MChi-2000_TuneCP5_13TeV-madgraph-pythia8/RunIISummer20UL17MiniAODv2-106X_mc2017_realistic_v9-v3/MINIAODSIM\n'
p370
sS'Suu7_chi2_HTHT'
p371
S'/SuuToChiChiToHTHTToJets_MSuu-7000_MChi-2000_TuneCP5_13TeV-madgraph-pythia8/RunIISummer20UL17MiniAODv2-106X_mc2017_realistic_v9-v1/MINIAODSIM\n'
p372
sS'Suu7_chi2_WBZT'
p373
S'/SuuToChiChiToWBZTToJets_MSuu-7000_MChi-2000_TuneCP5_13TeV-madgraph-pythia8/RunIISummer20UL17MiniAODv2-106X_mc2017_realistic_v9-v3/MINIAODSIM\n'
p374
sS'Suu4_chi1p5_WBZT'
p375
S'/SuuToChiChiToWBZTToJets_MSuu-4000_MChi-1500_TuneCP5_13TeV-madgraph-pythia8/RunIISummer20UL17MiniAODv2-106X_mc2017_realistic_v9-v3/MINIAODSIM\n'
p376
sS'Suu8_chi1p5_HTZT'
p377
S'/SuuToChiChiToHTZTToJets_MSuu-8000_MChi-1500_TuneCP5_13TeV-madgraph-pythia8/RunIISummer20UL17MiniAODv2-106X_mc2017_realistic_v9-v1/MINIAODSIM\n'
p378
sS'Suu7_chi1p5_WBHT'
p379
S'/SuuToChiChiToWBHTToJets_MSuu-7000_MChi-1500_TuneCP5_13TeV-madgraph-pythia8/RunIISummer20UL17MiniAODv2-106X_mc2017_realistic_v9-v1/MINIAODSIM\n'
p380
sS'Suu4_chi1_HTHT'
p381
S'/SuuToChiChiToHTHTToJets_MSuu-4000_MChi-1000_TuneCP5_13TeV-madgraph-pythia8/RunIISummer20UL17MiniAODv2-106X_mc2017_realistic_v9-v3/MINIAODSIM\n'
p382
sS'Suu7_chi2_WBHT'
p383
S'/SuuToChiChiToWBHTToJets_MSuu-7000_MChi-2000_TuneCP5_13TeV-madgraph-pythia8/RunIISummer20UL17MiniAODv2-106X_mc2017_realistic_v9-v1/MINIAODSIM\n'
p384
sS'Suu6_chi1p5_HTHT'
p385
S'/SuuToChiChiToHTHTToJets_MSuu-6000_MChi-1500_TuneCP5_13TeV-madgraph-pythia8/RunIISummer20UL17MiniAODv2-106X_mc2017_realistic_v9-v3/MINIAODSIM\n'
p386
sS'Suu6_chi1p5_WBHT'
p387
S'/SuuToChiChiToWBHTToJets_MSuu-6000_MChi-1500_TuneCP5_13TeV-madgraph-pythia8/RunIISummer20UL17MiniAODv2-106X_mc2017_realistic_v9-v1/MINIAODSIM\n'
p388
sS'Suu7_chi2_WBWB'
p389
S'/SuuToChiChiToWBWBToJets_MSuu-7000_MChi-2000_TuneCP5_13TeV-madgraph-pythia8/RunIISummer20UL17MiniAODv2-106X_mc2017_realistic_v9-v1/MINIAODSIM\n'
p390
sS'Suu7_chi1p5_HTZT'
p391
S'/SuuToChiChiToHTZTToJets_MSuu-7000_MChi-1500_TuneCP5_13TeV-madgraph-pythia8/RunIISummer20UL17MiniAODv2-106X_mc2017_realistic_v9-v2/MINIAODSIM\n'
p392
sS'Suu8_chi3_WBZT'
p393
S'/SuuToChiChiToWBZTToJets_MSuu-8000_MChi-3000_TuneCP5_13TeV-madgraph-pythia8/RunIISummer20UL17MiniAODv2-106X_mc2017_realistic_v9-v3/MINIAODSIM\n'
p394
sS'Suu4_chi1_WBWB'
p395
S'/SuuToChiChiToWBWBToJets_MSuu-4000_MChi-1000_TuneCP5_13TeV-madgraph-pythia8/RunIISummer20UL17MiniAODv2-106X_mc2017_realistic_v9-v1/MINIAODSIM\n'
p396
sS'Suu5_chi1_HTHT'
p397
S'/SuuToChiChiToHTHTToJets_MSuu-5000_MChi-1000_TuneCP5_13TeV-madgraph-pythia8/RunIISummer20UL17MiniAODv2-106X_mc2017_realistic_v9-v1/MINIAODSIM\n'
p398
sS'Suu8_chi2_WBZT'
p399
S'/SuuToChiChiToWBZTToJets_MSuu-8000_MChi-2000_TuneCP5_13TeV-madgraph-pythia8/RunIISummer20UL17MiniAODv2-106X_mc2017_realistic_v9-v1/MINIAODSIM\n'
p400
sS'Suu5_chi1p5_WBZT'
p401
S'/SuuToChiChiToWBZTToJets_MSuu-5000_MChi-1500_TuneCP5_13TeV-madgraph-pythia8/RunIISummer20UL17MiniAODv2-106X_mc2017_realistic_v9-v3/MINIAODSIM\n'
p402
sS'Suu5_chi1_ZTZT'
p403
S'/SuuToChiChiToZTZTToJets_MSuu-5000_MChi-1000_TuneCP5_13TeV-madgraph-pythia8/RunIISummer20UL17MiniAODv2-106X_mc2017_realistic_v9-v3/MINIAODSIM\n'
p404
sS'Suu7_chi1_WBHT'
p405
S'/SuuToChiChiToWBHTToJets_MSuu-7000_MChi-1000_TuneCP5_13TeV-madgraph-pythia8/RunIISummer20UL17MiniAODv2-106X_mc2017_realistic_v9-v3/MINIAODSIM\n'
p406
sS'Suu5_chi1_WBWB'
p407
S'/SuuToChiChiToWBWBToJets_MSuu-5000_MChi-1000_TuneCP5_13TeV-madgraph-pythia8/RunIISummer20UL17MiniAODv2-106X_mc2017_realistic_v9-v3/MINIAODSIM\n'
p408
sS'Suu6_chi12p5_WBHT'
p409
S'/SuuToChiChiToWBHTToJets_MSuu-6000_MChi-2500_TuneCP5_13TeV-madgraph-pythia8/RunIISummer20UL17MiniAODv2-106X_mc2017_realistic_v9-v1/MINIAODSIM\n'
p410
sS'Suu5_chi2_WBZT'
p411
S'/SuuToChiChiToWBZTToJets_MSuu-5000_MChi-2000_TuneCP5_13TeV-madgraph-pythia8/RunIISummer20UL17MiniAODv2-106X_mc2017_realistic_v9-v1/MINIAODSIM\n'
p412
sS'Suu7_chi2_ZTZT'
p413
S'/SuuToChiChiToZTZTToJets_MSuu-7000_MChi-2000_TuneCP5_13TeV-madgraph-pythia8/RunIISummer20UL17MiniAODv2-106X_mc2017_realistic_v9-v3/MINIAODSIM\n'
p414
sS'Suu7_chi12p5_ZTZT'
p415
S'/SuuToChiChiToZTZTToJets_MSuu-7000_MChi-2500_TuneCP5_13TeV-madgraph-pythia8/RunIISummer20UL17MiniAODv2-106X_mc2017_realistic_v9-v3/MINIAODSIM\n'
p416
sS'Suu6_chi1_HTZT'
p417
S'/SuuToChiChiToHTZTToJets_MSuu-6000_MChi-1000_TuneCP5_13TeV-madgraph-pythia8/RunIISummer20UL17MiniAODv2-106X_mc2017_realistic_v9-v3/MINIAODSIM\n'
p418
sS'Suu8_chi1p5_ZTZT'
p419
S'/SuuToChiChiToZTZTToJets_MSuu-8000_MChi-1500_TuneCP5_13TeV-madgraph-pythia8/RunIISummer20UL17MiniAODv2-106X_mc2017_realistic_v9-v3/MINIAODSIM\n'
p420
sS'Suu7_chi3_HTZT'
p421
S'/SuuToChiChiToHTZTToJets_MSuu-7000_MChi-3000_TuneCP5_13TeV-madgraph-pythia8/RunIISummer20UL17MiniAODv2-106X_mc2017_realistic_v9-v3/MINIAODSIM\n'
p422
sS'Suu7_chi12p5_WBWB'
p423
S'/SuuToChiChiToWBWBToJets_MSuu-7000_MChi-2500_TuneCP5_13TeV-madgraph-pythia8/RunIISummer20UL17MiniAODv2-106X_mc2017_realistic_v9-v1/MINIAODSIM\n'
p424
sS'Suu7_chi1p5_ZTZT'
p425
S'/SuuToChiChiToZTZTToJets_MSuu-7000_MChi-1500_TuneCP5_13TeV-madgraph-pythia8/RunIISummer20UL17MiniAODv2-106X_mc2017_realistic_v9-v3/MINIAODSIM\n'
p426
sS'Suu6_chi12p5_WBZT'
p427
S'/SuuToChiChiToWBZTToJets_MSuu-6000_MChi-2500_TuneCP5_13TeV-madgraph-pythia8/RunIISummer20UL17MiniAODv2-106X_mc2017_realistic_v9-v1/MINIAODSIM\n'
p428
sS'Suu8_chi12p5_HTZT'
p429
S'/SuuToChiChiToHTZTToJets_MSuu-8000_MChi-2500_TuneCP5_13TeV-madgraph-pythia8/RunIISummer20UL17MiniAODv2-106X_mc2017_realistic_v9-v2/MINIAODSIM\n'
p430
sS'Suu6_chi1_ZTZT'
p431
S'/SuuToChiChiToZTZTToJets_MSuu-6000_MChi-1000_TuneCP5_13TeV-madgraph-pythia8/RunIISummer20UL17MiniAODv2-106X_mc2017_realistic_v9-v1/MINIAODSIM\n'
p432
sS'Suu8_chi1p5_WBWB'
p433
S'/SuuToChiChiToWBWBToJets_MSuu-8000_MChi-1500_TuneCP5_13TeV-madgraph-pythia8/RunIISummer20UL17MiniAODv2-106X_mc2017_realistic_v9-v1/MINIAODSIM\n'
p434
sS'Suu6_chi12p5_HTHT'
p435
S'/SuuToChiChiToHTHTToJets_MSuu-6000_MChi-2500_TuneCP5_13TeV-madgraph-pythia8/RunIISummer20UL17MiniAODv2-106X_mc2017_realistic_v9-v3/MINIAODSIM\n'
p436
sS'Suu8_chi1p5_WBHT'
p437
S'/SuuToChiChiToWBHTToJets_MSuu-8000_MChi-1500_TuneCP5_13TeV-madgraph-pythia8/RunIISummer20UL17MiniAODv2-106X_mc2017_realistic_v9-v1/MINIAODSIM\n'
p438
ssS'2016'
p439
(dp440
S'Suu6_chi2_WBHT'
p441
S'/SuuToChiChiToWBHTToJets_MSuu-6000_MChi-2000_TuneCP5_13TeV-madgraph-pythia8/RunIISummer20UL16MiniAODv2-106X_mcRun2_asymptotic_v17-v1/MINIAODSIM\n'
p442
sS'Suu6_chi2_WBWB'
p443
S'/SuuToChiChiToWBWBToJets_MSuu-6000_MChi-2000_TuneCP5_13TeV-madgraph-pythia8/RunIISummer20UL16MiniAODv2-106X_mcRun2_asymptotic_v17-v2/MINIAODSIM\n'
p444
sS'Suu4_chi1p5_WBWB'
p445
S'/SuuToChiChiToWBWBToJets_MSuu-4000_MChi-1500_TuneCP5_13TeV-madgraph-pythia8/RunIISummer20UL16MiniAODv2-106X_mcRun2_asymptotic_v17-v3/MINIAODSIM\n'
p446
sS'Suu7_chi1_WBZT'
p447
S'/SuuToChiChiToWBZTToJets_MSuu-7000_MChi-1000_TuneCP5_13TeV-madgraph-pythia8/RunIISummer20UL16MiniAODv2-106X_mcRun2_asymptotic_v17-v1/MINIAODSIM\n'
p448
sS'Suu8_chi3_WBWB'
p449
S'/SuuToChiChiToWBWBToJets_MSuu-8000_MChi-3000_TuneCP5_13TeV-madgraph-pythia8/RunIISummer20UL16MiniAODv2-106X_mcRun2_asymptotic_v17-v2/MINIAODSIM\n'
p450
sS'Suu6_chi1p5_WBWB'
p451
S'/SuuToChiChiToWBWBToJets_MSuu-6000_MChi-1500_TuneCP5_13TeV-madgraph-pythia8/RunIISummer20UL16MiniAODv2-106X_mcRun2_asymptotic_v17-v1/MINIAODSIM\n'
p452
sS'Suu6_chi1_WBZT'
p453
S'/SuuToChiChiToWBZTToJets_MSuu-6000_MChi-1000_TuneCP5_13TeV-madgraph-pythia8/RunIISummer20UL16MiniAODv2-106X_mcRun2_asymptotic_v17-v1/MINIAODSIM\n'
p454
sS'Suu7_chi3_WBHT'
p455
S'/SuuToChiChiToWBHTToJets_MSuu-7000_MChi-3000_TuneCP5_13TeV-madgraph-pythia8/RunIISummer20UL16MiniAODv2-106X_mcRun2_asymptotic_v17-v1/MINIAODSIM\n'
p456
sS'Suu4_chi1p5_HTZT'
p457
S'/SuuToChiChiToHTZTToJets_MSuu-4000_MChi-1500_TuneCP5_13TeV-madgraph-pythia8/RunIISummer20UL16MiniAODv2-106X_mcRun2_asymptotic_v17-v3/MINIAODSIM\n'
p458
sS'Suu8_chi1p5_WBZT'
p459
S'/SuuToChiChiToWBZTToJets_MSuu-8000_MChi-1500_TuneCP5_13TeV-madgraph-pythia8/RunIISummer20UL16MiniAODv2-106X_mcRun2_asymptotic_v17-v1/MINIAODSIM\n'
p460
sS'Suu7_chi1_ZTZT'
p461
S'/SuuToChiChiToZTZTToJets_MSuu-7000_MChi-1000_TuneCP5_13TeV-madgraph-pythia8/RunIISummer20UL16MiniAODv2-106X_mcRun2_asymptotic_v17-v1/MINIAODSIM\n'
p462
sS'Suu8_chi1_HTHT'
p463
S'/SuuToChiChiToHTHTToJets_MSuu-8000_MChi-1000_TuneCP5_13TeV-madgraph-pythia8/RunIISummer20UL16MiniAODv2-106X_mcRun2_asymptotic_v17-v1/MINIAODSIM\n'
p464
sS'Suu7_chi2_HTZT'
p465
S'/SuuToChiChiToHTZTToJets_MSuu-7000_MChi-2000_TuneCP5_13TeV-madgraph-pythia8/RunIISummer20UL16MiniAODv2-106X_mcRun2_asymptotic_v17-v2/MINIAODSIM\n'
p466
sS'Suu7_chi1p5_WBZT'
p467
S'/SuuToChiChiToWBZTToJets_MSuu-7000_MChi-1500_TuneCP5_13TeV-madgraph-pythia8/RunIISummer20UL16MiniAODv2-106X_mcRun2_asymptotic_v17-v1/MINIAODSIM\n'
p468
sS'Suu8_chi1_WBZT'
p469
S'/SuuToChiChiToWBZTToJets_MSuu-8000_MChi-1000_TuneCP5_13TeV-madgraph-pythia8/RunIISummer20UL16MiniAODv2-106X_mcRun2_asymptotic_v17-v1/MINIAODSIM\n'
p470
sS'Suu5_chi2_ZTZT'
p471
S'/SuuToChiChiToZTZTToJets_MSuu-5000_MChi-2000_TuneCP5_13TeV-madgraph-pythia8/RunIISummer20UL16MiniAODv2-106X_mcRun2_asymptotic_v17-v3/MINIAODSIM\n'
p472
sS'Suu8_chi2_ZTZT'
p473
S'/SuuToChiChiToZTZTToJets_MSuu-8000_MChi-2000_TuneCP5_13TeV-madgraph-pythia8/RunIISummer20UL16MiniAODv2-106X_mcRun2_asymptotic_v17-v1/MINIAODSIM\n'
p474
sS'Suu4_chi1p5_HTHT'
p475
S'/SuuToChiChiToHTHTToJets_MSuu-4000_MChi-1500_TuneCP5_13TeV-madgraph-pythia8/RunIISummer20UL16MiniAODv2-106X_mcRun2_asymptotic_v17-v3/MINIAODSIM\n'
p476
sS'Suu8_chi1_WBHT'
p477
S'/SuuToChiChiToWBHTToJets_MSuu-8000_MChi-1000_TuneCP5_13TeV-madgraph-pythia8/RunIISummer20UL16MiniAODv2-106X_mcRun2_asymptotic_v17-v1/MINIAODSIM\n'
p478
sS'Suu8_chi3_WBHT'
p479
S'/SuuToChiChiToWBHTToJets_MSuu-8000_MChi-3000_TuneCP5_13TeV-madgraph-pythia8/RunIISummer20UL16MiniAODv2-106X_mcRun2_asymptotic_v17-v1/MINIAODSIM\n'
p480
sS'Suu7_chi1_HTHT'
p481
S'/SuuToChiChiToHTHTToJets_MSuu-7000_MChi-1000_TuneCP5_13TeV-madgraph-pythia8/RunIISummer20UL16MiniAODv2-106X_mcRun2_asymptotic_v17-v1/MINIAODSIM\n'
p482
sS'Suu7_chi3_HTHT'
p483
S'/SuuToChiChiToHTHTToJets_MSuu-7000_MChi-3000_TuneCP5_13TeV-madgraph-pythia8/RunIISummer20UL16MiniAODv2-106X_mcRun2_asymptotic_v17-v1/MINIAODSIM\n'
p484
sS'Suu4_chi1_HTZT'
p485
S'/SuuToChiChiToHTZTToJets_MSuu-4000_MChi-1000_TuneCP5_13TeV-madgraph-pythia8/RunIISummer20UL16MiniAODv2-106X_mcRun2_asymptotic_v17-v1/MINIAODSIM\n'
p486
sS'Suu6_chi1_HTHT'
p487
S'/SuuToChiChiToHTHTToJets_MSuu-6000_MChi-1000_TuneCP5_13TeV-madgraph-pythia8/RunIISummer20UL16MiniAODv2-106X_mcRun2_asymptotic_v17-v1/MINIAODSIM\n'
p488
sS'Suu4_chi1_ZTZT'
p489
S'/SuuToChiChiToZTZTToJets_MSuu-4000_MChi-1000_TuneCP5_13TeV-madgraph-pythia8/RunIISummer20UL16MiniAODv2-106X_mcRun2_asymptotic_v17-v1/MINIAODSIM\n'
p490
sS'Suu5_chi1p5_HTZT'
p491
S'/SuuToChiChiToHTZTToJets_MSuu-5000_MChi-1500_TuneCP5_13TeV-madgraph-pythia8/RunIISummer20UL16MiniAODv2-106X_mcRun2_asymptotic_v17-v2/MINIAODSIM\n'
p492
sS'Suu5_chi1p5_WBHT'
p493
S'/SuuToChiChiToWBHTToJets_MSuu-5000_MChi-1500_TuneCP5_13TeV-madgraph-pythia8/RunIISummer20UL16MiniAODv2-106X_mcRun2_asymptotic_v17-v1/MINIAODSIM\n'
p494
sS'Suu7_chi3_WBZT'
p495
S'/SuuToChiChiToWBZTToJets_MSuu-7000_MChi-3000_TuneCP5_13TeV-madgraph-pythia8/RunIISummer20UL16MiniAODv2-106X_mcRun2_asymptotic_v17-v1/MINIAODSIM\n'
p496
sS'Suu6_chi2_HTHT'
p497
S'/SuuToChiChiToHTHTToJets_MSuu-6000_MChi-2000_TuneCP5_13TeV-madgraph-pythia8/RunIISummer20UL16MiniAODv2-106X_mcRun2_asymptotic_v17-v2/MINIAODSIM\n'
p498
sS'Suu5_chi1p5_ZTZT'
p499
S'/SuuToChiChiToZTZTToJets_MSuu-5000_MChi-1500_TuneCP5_13TeV-madgraph-pythia8/RunIISummer20UL16MiniAODv2-106X_mcRun2_asymptotic_v17-v2/MINIAODSIM\n'
p500
sS'Suu6_chi1p5_ZTZT'
p501
S'/SuuToChiChiToZTZTToJets_MSuu-6000_MChi-1500_TuneCP5_13TeV-madgraph-pythia8/RunIISummer20UL16MiniAODv2-106X_mcRun2_asymptotic_v17-v1/MINIAODSIM\n'
p502
sS'Suu4_chi1p5_ZTZT'
p503
S'/SuuToChiChiToZTZTToJets_MSuu-4000_MChi-1500_TuneCP5_13TeV-madgraph-pythia8/RunIISummer20UL16MiniAODv2-106X_mcRun2_asymptotic_v17-v1/MINIAODSIM\n'
p504
sS'Suu6_chi12p5_WBWB'
p505
S'/SuuToChiChiToWBWBToJets_MSuu-6000_MChi-2500_TuneCP5_13TeV-madgraph-pythia8/RunIISummer20UL16MiniAODv2-106X_mcRun2_asymptotic_v17-v3/MINIAODSIM\n'
p506
sS'Suu8_chi2_HTZT'
p507
S'/SuuToChiChiToHTZTToJets_MSuu-8000_MChi-2000_TuneCP5_13TeV-madgraph-pythia8/RunIISummer20UL16MiniAODv2-106X_mcRun2_asymptotic_v17-v1/MINIAODSIM\n'
p508
sS'Suu7_chi12p5_WBZT'
p509
S'/SuuToChiChiToWBZTToJets_MSuu-7000_MChi-2500_TuneCP5_13TeV-madgraph-pythia8/RunIISummer20UL16MiniAODv2-106X_mcRun2_asymptotic_v17-v1/MINIAODSIM\n'
p510
sS'Suu8_chi3_HTZT'
p511
S'/SuuToChiChiToHTZTToJets_MSuu-8000_MChi-3000_TuneCP5_13TeV-madgraph-pythia8/RunIISummer20UL16MiniAODv2-106X_mcRun2_asymptotic_v17-v3/MINIAODSIM\n'
p512
sS'Suu6_chi12p5_ZTZT'
p513
S'/SuuToChiChiToZTZTToJets_MSuu-6000_MChi-2500_TuneCP5_13TeV-madgraph-pythia8/RunIISummer20UL16MiniAODv2-106X_mcRun2_asymptotic_v17-v3/MINIAODSIM\n'
p514
sS'Suu7_chi1_HTZT'
p515
S'/SuuToChiChiToHTZTToJets_MSuu-7000_MChi-1000_TuneCP5_13TeV-madgraph-pythia8/RunIISummer20UL16MiniAODv2-106X_mcRun2_asymptotic_v17-v1/MINIAODSIM\n'
p516
sS'Suu4_chi1p5_WBHT'
p517
S'/SuuToChiChiToWBHTToJets_MSuu-4000_MChi-1500_TuneCP5_13TeV-madgraph-pythia8/RunIISummer20UL16MiniAODv2-106X_mcRun2_asymptotic_v17-v1/MINIAODSIM\n'
p518
sS'Suu8_chi12p5_WBWB'
p519
S'/SuuToChiChiToWBWBToJets_MSuu-8000_MChi-2500_TuneCP5_13TeV-madgraph-pythia8/RunIISummer20UL16MiniAODv2-106X_mcRun2_asymptotic_v17-v1/MINIAODSIM\n'
p520
sS'Suu5_chi1p5_HTHT'
p521
S'/SuuToChiChiToHTHTToJets_MSuu-5000_MChi-1500_TuneCP5_13TeV-madgraph-pythia8/RunIISummer20UL16MiniAODv2-106X_mcRun2_asymptotic_v17-v2/MINIAODSIM\n'
p522
sS'Suu5_chi2_WBWB'
p523
S'/SuuToChiChiToWBWBToJets_MSuu-5000_MChi-2000_TuneCP5_13TeV-madgraph-pythia8/RunIISummer20UL16MiniAODv2-106X_mcRun2_asymptotic_v17-v3/MINIAODSIM\n'
p524
sS'Suu8_chi1_HTZT'
p525
S'/SuuToChiChiToHTZTToJets_MSuu-8000_MChi-1000_TuneCP5_13TeV-madgraph-pythia8/RunIISummer20UL16MiniAODv2-106X_mcRun2_asymptotic_v17-v1/MINIAODSIM\n'
p526
sS'Suu4_chi1_WBHT'
p527
S'/SuuToChiChiToWBHTToJets_MSuu-4000_MChi-1000_TuneCP5_13TeV-madgraph-pythia8/RunIISummer20UL16MiniAODv2-106X_mcRun2_asymptotic_v17-v1/MINIAODSIM\n'
p528
sS'Suu8_chi12p5_ZTZT'
p529
S'/SuuToChiChiToZTZTToJets_MSuu-8000_MChi-2500_TuneCP5_13TeV-madgraph-pythia8/RunIISummer20UL16MiniAODv2-106X_mcRun2_asymptotic_v17-v2/MINIAODSIM\n'
p530
sS'Suu8_chi2_WBHT'
p531
S'/SuuToChiChiToWBHTToJets_MSuu-8000_MChi-2000_TuneCP5_13TeV-madgraph-pythia8/RunIISummer20UL16MiniAODv2-106X_mcRun2_asymptotic_v17-v1/MINIAODSIM\n'
p532
sS'Suu5_chi1_WBZT'
p533
S'/SuuToChiChiToWBZTToJets_MSuu-5000_MChi-1000_TuneCP5_13TeV-madgraph-pythia8/RunIISummer20UL16MiniAODv2-106X_mcRun2_asymptotic_v17-v1/MINIAODSIM\n'
p534
sS'Suu5_chi1p5_WBWB'
p535
S'/SuuToChiChiToWBWBToJets_MSuu-5000_MChi-1500_TuneCP5_13TeV-madgraph-pythia8/RunIISummer20UL16MiniAODv2-106X_mcRun2_asymptotic_v17-v1/MINIAODSIM\n'
p536
sS'Suu8_chi1_ZTZT'
p537
S'/SuuToChiChiToZTZTToJets_MSuu-8000_MChi-1000_TuneCP5_13TeV-madgraph-pythia8/RunIISummer20UL16MiniAODv2-106X_mcRun2_asymptotic_v17-v1/MINIAODSIM\n'
p538
sS'Suu8_chi3_HTHT'
p539
S'/SuuToChiChiToHTHTToJets_MSuu-8000_MChi-3000_TuneCP5_13TeV-madgraph-pythia8/RunIISummer20UL16MiniAODv2-106X_mcRun2_asymptotic_v17-v3/MINIAODSIM\n'
p540
sS'Suu7_chi3_WBWB'
p541
S'/SuuToChiChiToWBWBToJets_MSuu-7000_MChi-3000_TuneCP5_13TeV-madgraph-pythia8/RunIISummer20UL16MiniAODv2-106X_mcRun2_asymptotic_v17-v3/MINIAODSIM\n'
p542
sS'Suu8_chi12p5_HTHT'
p543
S'/SuuToChiChiToHTHTToJets_MSuu-8000_MChi-2500_TuneCP5_13TeV-madgraph-pythia8/RunIISummer20UL16MiniAODv2-106X_mcRun2_asymptotic_v17-v2/MINIAODSIM\n'
p544
sS'Suu8_chi12p5_WBZT'
p545
S'/SuuToChiChiToWBZTToJets_MSuu-8000_MChi-2500_TuneCP5_13TeV-madgraph-pythia8/RunIISummer20UL16MiniAODv2-106X_mcRun2_asymptotic_v17-v1/MINIAODSIM\n'
p546
sS'Suu7_chi1_WBWB'
p547
S'/SuuToChiChiToWBWBToJets_MSuu-7000_MChi-1000_TuneCP5_13TeV-madgraph-pythia8/RunIISummer20UL16MiniAODv2-106X_mcRun2_asymptotic_v17-v1/MINIAODSIM\n'
p548
sS'Suu7_chi12p5_HTZT'
p549
S'/SuuToChiChiToHTZTToJets_MSuu-7000_MChi-2500_TuneCP5_13TeV-madgraph-pythia8/RunIISummer20UL16MiniAODv2-106X_mcRun2_asymptotic_v17-v1/MINIAODSIM\n'
p550
sS'Suu7_chi1p5_HTHT'
p551
S'/SuuToChiChiToHTHTToJets_MSuu-7000_MChi-1500_TuneCP5_13TeV-madgraph-pythia8/RunIISummer20UL16MiniAODv2-106X_mcRun2_asymptotic_v17-v1/MINIAODSIM\n'
p552
sS'Suu5_chi1_HTZT'
p553
S'/SuuToChiChiToHTZTToJets_MSuu-5000_MChi-1000_TuneCP5_13TeV-madgraph-pythia8/RunIISummer20UL16MiniAODv2-106X_mcRun2_asymptotic_v17-v1/MINIAODSIM\n'
p554
sS'Suu6_chi1p5_HTZT'
p555
S'/SuuToChiChiToHTZTToJets_MSuu-6000_MChi-1500_TuneCP5_13TeV-madgraph-pythia8/RunIISummer20UL16MiniAODv2-106X_mcRun2_asymptotic_v17-v1/MINIAODSIM\n'
p556
sS'Suu7_chi3_ZTZT'
p557
S'/SuuToChiChiToZTZTToJets_MSuu-7000_MChi-3000_TuneCP5_13TeV-madgraph-pythia8/RunIISummer20UL16MiniAODv2-106X_mcRun2_asymptotic_v17-v2/MINIAODSIM\n'
p558
sS'Suu5_chi1_WBHT'
p559
S'/SuuToChiChiToWBHTToJets_MSuu-5000_MChi-1000_TuneCP5_13TeV-madgraph-pythia8/RunIISummer20UL16MiniAODv2-106X_mcRun2_asymptotic_v17-v1/MINIAODSIM\n'
p560
sS'Suu6_chi12p5_HTZT'
p561
S'/SuuToChiChiToHTZTToJets_MSuu-6000_MChi-2500_TuneCP5_13TeV-madgraph-pythia8/RunIISummer20UL16MiniAODv2-106X_mcRun2_asymptotic_v17-v1/MINIAODSIM\n'
p562
sS'Suu7_chi1p5_WBWB'
p563
S'/SuuToChiChiToWBWBToJets_MSuu-7000_MChi-1500_TuneCP5_13TeV-madgraph-pythia8/RunIISummer20UL16MiniAODv2-106X_mcRun2_asymptotic_v17-v1/MINIAODSIM\n'
p564
sS'Suu8_chi1p5_HTHT'
p565
S'/SuuToChiChiToHTHTToJets_MSuu-8000_MChi-1500_TuneCP5_13TeV-madgraph-pythia8/RunIISummer20UL16MiniAODv2-106X_mcRun2_asymptotic_v17-v1/MINIAODSIM\n'
p566
sS'Suu8_chi12p5_WBHT'
p567
S'/SuuToChiChiToWBHTToJets_MSuu-8000_MChi-2500_TuneCP5_13TeV-madgraph-pythia8/RunIISummer20UL16MiniAODv2-106X_mcRun2_asymptotic_v17-v1/MINIAODSIM\n'
p568
sS'Suu4_chi1_WBZT'
p569
S'/SuuToChiChiToWBZTToJets_MSuu-4000_MChi-1000_TuneCP5_13TeV-madgraph-pythia8/RunIISummer20UL16MiniAODv2-106X_mcRun2_asymptotic_v17-v1/MINIAODSIM\n'
p570
sS'Suu6_chi2_WBZT'
p571
S'/SuuToChiChiToWBZTToJets_MSuu-6000_MChi-2000_TuneCP5_13TeV-madgraph-pythia8/RunIISummer20UL16MiniAODv2-106X_mcRun2_asymptotic_v17-v1/MINIAODSIM\n'
p572
sS'Suu5_chi2_HTHT'
p573
S'/SuuToChiChiToHTHTToJets_MSuu-5000_MChi-2000_TuneCP5_13TeV-madgraph-pythia8/RunIISummer20UL16MiniAODv2-106X_mcRun2_asymptotic_v17-v3/MINIAODSIM\n'
p574
sS'Suu6_chi1p5_WBZT'
p575
S'/SuuToChiChiToWBZTToJets_MSuu-6000_MChi-1500_TuneCP5_13TeV-madgraph-pythia8/RunIISummer20UL16MiniAODv2-106X_mcRun2_asymptotic_v17-v1/MINIAODSIM\n'
p576
sS'Suu8_chi1_WBWB'
p577
S'/SuuToChiChiToWBWBToJets_MSuu-8000_MChi-1000_TuneCP5_13TeV-madgraph-pythia8/RunIISummer20UL16MiniAODv2-106X_mcRun2_asymptotic_v17-v1/MINIAODSIM\n'
p578
sS'Suu6_chi1_WBWB'
p579
S'/SuuToChiChiToWBWBToJets_MSuu-6000_MChi-1000_TuneCP5_13TeV-madgraph-pythia8/RunIISummer20UL16MiniAODv2-106X_mcRun2_asymptotic_v17-v1/MINIAODSIM\n'
p580
sS'Suu8_chi2_WBWB'
p581
S'/SuuToChiChiToWBWBToJets_MSuu-8000_MChi-2000_TuneCP5_13TeV-madgraph-pythia8/RunIISummer20UL16MiniAODv2-106X_mcRun2_asymptotic_v17-v1/MINIAODSIM\n'
p582
sS'Suu6_chi1_WBHT'
p583
S'/SuuToChiChiToWBHTToJets_MSuu-6000_MChi-1000_TuneCP5_13TeV-madgraph-pythia8/RunIISummer20UL16MiniAODv2-106X_mcRun2_asymptotic_v17-v1/MINIAODSIM\n'
p584
sS'Suu7_chi12p5_WBHT'
p585
S'/SuuToChiChiToWBHTToJets_MSuu-7000_MChi-2500_TuneCP5_13TeV-madgraph-pythia8/RunIISummer20UL16MiniAODv2-106X_mcRun2_asymptotic_v17-v1/MINIAODSIM\n'
p586
sS'Suu5_chi2_WBHT'
p587
S'/SuuToChiChiToWBHTToJets_MSuu-5000_MChi-2000_TuneCP5_13TeV-madgraph-pythia8/RunIISummer20UL16MiniAODv2-106X_mcRun2_asymptotic_v17-v1/MINIAODSIM\n'
p588
sS'Suu8_chi2_HTHT'
p589
S'/SuuToChiChiToHTHTToJets_MSuu-8000_MChi-2000_TuneCP5_13TeV-madgraph-pythia8/RunIISummer20UL16MiniAODv2-106X_mcRun2_asymptotic_v17-v1/MINIAODSIM\n'
p590
sS'Suu7_chi2_HTHT'
p591
S'/SuuToChiChiToHTHTToJets_MSuu-7000_MChi-2000_TuneCP5_13TeV-madgraph-pythia8/RunIISummer20UL16MiniAODv2-106X_mcRun2_asymptotic_v17-v1/MINIAODSIM\n'
p592
sS'Suu7_chi2_WBZT'
p593
S'/SuuToChiChiToWBZTToJets_MSuu-7000_MChi-2000_TuneCP5_13TeV-madgraph-pythia8/RunIISummer20UL16MiniAODv2-106X_mcRun2_asymptotic_v17-v3/MINIAODSIM\n'
p594
sS'Suu4_chi1p5_WBZT'
p595
S'/SuuToChiChiToWBZTToJets_MSuu-4000_MChi-1500_TuneCP5_13TeV-madgraph-pythia8/RunIISummer20UL16MiniAODv2-106X_mcRun2_asymptotic_v17-v1/MINIAODSIM\n'
p596
sS'Suu8_chi1p5_HTZT'
p597
S'/SuuToChiChiToHTZTToJets_MSuu-8000_MChi-1500_TuneCP5_13TeV-madgraph-pythia8/RunIISummer20UL16MiniAODv2-106X_mcRun2_asymptotic_v17-v1/MINIAODSIM\n'
p598
sS'Suu7_chi1p5_WBHT'
p599
S'/SuuToChiChiToWBHTToJets_MSuu-7000_MChi-1500_TuneCP5_13TeV-madgraph-pythia8/RunIISummer20UL16MiniAODv2-106X_mcRun2_asymptotic_v17-v1/MINIAODSIM\n'
p600
sS'Suu4_chi1_HTHT'
p601
S'/SuuToChiChiToHTHTToJets_MSuu-4000_MChi-1000_TuneCP5_13TeV-madgraph-pythia8/RunIISummer20UL16MiniAODv2-106X_mcRun2_asymptotic_v17-v1/MINIAODSIM\n'
p602
sS'Suu7_chi2_WBHT'
p603
S'/SuuToChiChiToWBHTToJets_MSuu-7000_MChi-2000_TuneCP5_13TeV-madgraph-pythia8/RunIISummer20UL16MiniAODv2-106X_mcRun2_asymptotic_v17-v1/MINIAODSIM\n'
p604
sS'Suu6_chi1p5_HTHT'
p605
S'/SuuToChiChiToHTHTToJets_MSuu-6000_MChi-1500_TuneCP5_13TeV-madgraph-pythia8/RunIISummer20UL16MiniAODv2-106X_mcRun2_asymptotic_v17-v1/MINIAODSIM\n'
p606
sS'Suu6_chi1p5_WBHT'
p607
S'/SuuToChiChiToWBHTToJets_MSuu-6000_MChi-1500_TuneCP5_13TeV-madgraph-pythia8/RunIISummer20UL16MiniAODv2-106X_mcRun2_asymptotic_v17-v1/MINIAODSIM\n'
p608
sS'Suu7_chi2_WBWB'
p609
S'/SuuToChiChiToWBWBToJets_MSuu-7000_MChi-2000_TuneCP5_13TeV-madgraph-pythia8/RunIISummer20UL16MiniAODv2-106X_mcRun2_asymptotic_v17-v1/MINIAODSIM\n'
p610
sS'Suu7_chi1p5_HTZT'
p611
S'/SuuToChiChiToHTZTToJets_MSuu-7000_MChi-1500_TuneCP5_13TeV-madgraph-pythia8/RunIISummer20UL16MiniAODv2-106X_mcRun2_asymptotic_v17-v1/MINIAODSIM\n'
p612
sS'Suu8_chi3_WBZT'
p613
S'/SuuToChiChiToWBZTToJets_MSuu-8000_MChi-3000_TuneCP5_13TeV-madgraph-pythia8/RunIISummer20UL16MiniAODv2-106X_mcRun2_asymptotic_v17-v1/MINIAODSIM\n'
p614
sS'Suu4_chi1_WBWB'
p615
S'/SuuToChiChiToWBWBToJets_MSuu-4000_MChi-1000_TuneCP5_13TeV-madgraph-pythia8/RunIISummer20UL16MiniAODv2-106X_mcRun2_asymptotic_v17-v1/MINIAODSIM\n'
p616
sS'Suu5_chi1_HTHT'
p617
S'/SuuToChiChiToHTHTToJets_MSuu-5000_MChi-1000_TuneCP5_13TeV-madgraph-pythia8/RunIISummer20UL16MiniAODv2-106X_mcRun2_asymptotic_v17-v1/MINIAODSIM\n'
p618
sS'Suu8_chi2_WBZT'
p619
S'/SuuToChiChiToWBZTToJets_MSuu-8000_MChi-2000_TuneCP5_13TeV-madgraph-pythia8/RunIISummer20UL16MiniAODv2-106X_mcRun2_asymptotic_v17-v1/MINIAODSIM\n'
p620
sS'Suu5_chi1p5_WBZT'
p621
S'/SuuToChiChiToWBZTToJets_MSuu-5000_MChi-1500_TuneCP5_13TeV-madgraph-pythia8/RunIISummer20UL16MiniAODv2-106X_mcRun2_asymptotic_v17-v1/MINIAODSIM\n'
p622
sS'Suu5_chi1_ZTZT'
p623
S'/SuuToChiChiToZTZTToJets_MSuu-5000_MChi-1000_TuneCP5_13TeV-madgraph-pythia8/RunIISummer20UL16MiniAODv2-106X_mcRun2_asymptotic_v17-v1/MINIAODSIM\n'
p624
sS'Suu7_chi1_WBHT'
p625
S'/SuuToChiChiToWBHTToJets_MSuu-7000_MChi-1000_TuneCP5_13TeV-madgraph-pythia8/RunIISummer20UL16MiniAODv2-106X_mcRun2_asymptotic_v17-v1/MINIAODSIM\n'
p626
sS'Suu5_chi1_WBWB'
p627
S'/SuuToChiChiToWBWBToJets_MSuu-5000_MChi-1000_TuneCP5_13TeV-madgraph-pythia8/RunIISummer20UL16MiniAODv2-106X_mcRun2_asymptotic_v17-v1/MINIAODSIM\n'
p628
sS'Suu6_chi12p5_WBHT'
p629
S'/SuuToChiChiToWBHTToJets_MSuu-6000_MChi-2500_TuneCP5_13TeV-madgraph-pythia8/RunIISummer20UL16MiniAODv2-106X_mcRun2_asymptotic_v17-v1/MINIAODSIM\n'
p630
sS'Suu5_chi2_WBZT'
p631
S'/SuuToChiChiToWBZTToJets_MSuu-5000_MChi-2000_TuneCP5_13TeV-madgraph-pythia8/RunIISummer20UL16MiniAODv2-106X_mcRun2_asymptotic_v17-v1/MINIAODSIM\n'
p632
sS'Suu7_chi2_ZTZT'
p633
S'/SuuToChiChiToZTZTToJets_MSuu-7000_MChi-2000_TuneCP5_13TeV-madgraph-pythia8/RunIISummer20UL16MiniAODv2-106X_mcRun2_asymptotic_v17-v1/MINIAODSIM\n'
p634
sS'Suu7_chi12p5_ZTZT'
p635
S'/SuuToChiChiToZTZTToJets_MSuu-7000_MChi-2500_TuneCP5_13TeV-madgraph-pythia8/RunIISummer20UL16MiniAODv2-106X_mcRun2_asymptotic_v17-v1/MINIAODSIM\n'
p636
sS'Suu6_chi1_HTZT'
p637
S'/SuuToChiChiToHTZTToJets_MSuu-6000_MChi-1000_TuneCP5_13TeV-madgraph-pythia8/RunIISummer20UL16MiniAODv2-106X_mcRun2_asymptotic_v17-v1/MINIAODSIM\n'
p638
sS'Suu8_chi1p5_ZTZT'
p639
S'/SuuToChiChiToZTZTToJets_MSuu-8000_MChi-1500_TuneCP5_13TeV-madgraph-pythia8/RunIISummer20UL16MiniAODv2-106X_mcRun2_asymptotic_v17-v1/MINIAODSIM\n'
p640
sS'Suu7_chi3_HTZT'
p641
S'/SuuToChiChiToHTZTToJets_MSuu-7000_MChi-3000_TuneCP5_13TeV-madgraph-pythia8/RunIISummer20UL16MiniAODv2-106X_mcRun2_asymptotic_v17-v3/MINIAODSIM\n'
p642
sS'Suu7_chi12p5_WBWB'
p643
S'/SuuToChiChiToWBWBToJets_MSuu-7000_MChi-2500_TuneCP5_13TeV-madgraph-pythia8/RunIISummer20UL16MiniAODv2-106X_mcRun2_asymptotic_v17-v1/MINIAODSIM\n'
p644
sS'Suu7_chi1p5_ZTZT'
p645
S'/SuuToChiChiToZTZTToJets_MSuu-7000_MChi-1500_TuneCP5_13TeV-madgraph-pythia8/RunIISummer20UL16MiniAODv2-106X_mcRun2_asymptotic_v17-v1/MINIAODSIM\n'
p646
sS'Suu6_chi12p5_WBZT'
p647
S'/SuuToChiChiToWBZTToJets_MSuu-6000_MChi-2500_TuneCP5_13TeV-madgraph-pythia8/RunIISummer20UL16MiniAODv2-106X_mcRun2_asymptotic_v17-v1/MINIAODSIM\n'
p648
sS'Suu8_chi12p5_HTZT'
p649
S'/SuuToChiChiToHTZTToJets_MSuu-8000_MChi-2500_TuneCP5_13TeV-madgraph-pythia8/RunIISummer20UL16MiniAODv2-106X_mcRun2_asymptotic_v17-v1/MINIAODSIM\n'
p650
sS'Suu6_chi1_ZTZT'
p651
S'/SuuToChiChiToZTZTToJets_MSuu-6000_MChi-1000_TuneCP5_13TeV-madgraph-pythia8/RunIISummer20UL16MiniAODv2-106X_mcRun2_asymptotic_v17-v1/MINIAODSIM\n'
p652
sS'Suu8_chi1p5_WBWB'
p653
S'/SuuToChiChiToWBWBToJets_MSuu-8000_MChi-1500_TuneCP5_13TeV-madgraph-pythia8/RunIISummer20UL16MiniAODv2-106X_mcRun2_asymptotic_v17-v1/MINIAODSIM\n'
p654
sS'Suu6_chi12p5_HTHT'
p655
S'/SuuToChiChiToHTHTToJets_MSuu-6000_MChi-2500_TuneCP5_13TeV-madgraph-pythia8/RunIISummer20UL16MiniAODv2-106X_mcRun2_asymptotic_v17-v1/MINIAODSIM\n'
p656
sS'Suu7_chi12p5_HTHT'
p657
S'/SuuToChiChiToHTHTToJets_MSuu-7000_MChi-2500_TuneCP5_13TeV-madgraph-pythia8/RunIISummer20UL16MiniAODv2-106X_mcRun2_asymptotic_v17-v1/MINIAODSIM\n'
p658
sS'Suu8_chi1p5_WBHT'
p659
S'/SuuToChiChiToWBHTToJets_MSuu-8000_MChi-1500_TuneCP5_13TeV-madgraph-pythia8/RunIISummer20UL16MiniAODv2-106X_mcRun2_asymptotic_v17-v1/MINIAODSIM\n'
p660
ssS'2018'
p661
(dp662
S'Suu6_chi2_WBHT'
p663
S'/SuuToChiChiToWBHTToJets_MSuu-6000_MChi-2000_TuneCP5_13TeV-madgraph-pythia8/RunIISummer20UL18MiniAODv2-106X_upgrade2018_realistic_v16_L1v1-v1/MINIAODSIM\n'
p664
sS'Suu6_chi2_WBWB'
p665
S'/SuuToChiChiToWBWBToJets_MSuu-6000_MChi-2000_TuneCP5_13TeV-madgraph-pythia8/RunIISummer20UL18MiniAODv2-106X_upgrade2018_realistic_v16_L1v1-v2/MINIAODSIM\n'
p666
sS'Suu4_chi1p5_WBWB'
p667
S'/SuuToChiChiToWBWBToJets_MSuu-4000_MChi-1500_TuneCP5_13TeV-madgraph-pythia8/RunIISummer20UL18MiniAODv2-106X_upgrade2018_realistic_v16_L1v1-v3/MINIAODSIM\n'
p668
sS'Suu7_chi1_WBZT'
p669
S'/SuuToChiChiToWBZTToJets_MSuu-7000_MChi-1000_TuneCP5_13TeV-madgraph-pythia8/RunIISummer20UL18MiniAODv2-106X_upgrade2018_realistic_v16_L1v1-v1/MINIAODSIM\n'
p670
sS'Suu8_chi3_WBWB'
p671
S'/SuuToChiChiToWBWBToJets_MSuu-8000_MChi-3000_TuneCP5_13TeV-madgraph-pythia8/RunIISummer20UL18MiniAODv2-106X_upgrade2018_realistic_v16_L1v1-v2/MINIAODSIM\n'
p672
sS'Suu6_chi1p5_WBWB'
p673
S'/SuuToChiChiToWBWBToJets_MSuu-6000_MChi-1500_TuneCP5_13TeV-madgraph-pythia8/RunIISummer20UL18MiniAODv2-106X_upgrade2018_realistic_v16_L1v1-v3/MINIAODSIM\n'
p674
sS'Suu6_chi1_WBZT'
p675
S'/SuuToChiChiToWBZTToJets_MSuu-6000_MChi-1000_TuneCP5_13TeV-madgraph-pythia8/RunIISummer20UL18MiniAODv2-106X_upgrade2018_realistic_v16_L1v1-v3/MINIAODSIM\n'
p676
sS'Suu7_chi3_WBHT'
p677
S'/SuuToChiChiToWBHTToJets_MSuu-7000_MChi-3000_TuneCP5_13TeV-madgraph-pythia8/RunIISummer20UL18MiniAODv2-106X_upgrade2018_realistic_v16_L1v1-v1/MINIAODSIM\n'
p678
sS'Suu4_chi1p5_HTZT'
p679
S'/SuuToChiChiToHTZTToJets_MSuu-4000_MChi-1500_TuneCP5_13TeV-madgraph-pythia8/RunIISummer20UL18MiniAODv2-106X_upgrade2018_realistic_v16_L1v1-v3/MINIAODSIM\n'
p680
sS'Suu8_chi1p5_WBZT'
p681
S'/SuuToChiChiToWBZTToJets_MSuu-8000_MChi-1500_TuneCP5_13TeV-madgraph-pythia8/RunIISummer20UL18MiniAODv2-106X_upgrade2018_realistic_v16_L1v1-v1/MINIAODSIM\n'
p682
sS'Suu7_chi1_ZTZT'
p683
S'/SuuToChiChiToZTZTToJets_MSuu-7000_MChi-1000_TuneCP5_13TeV-madgraph-pythia8/RunIISummer20UL18MiniAODv2-106X_upgrade2018_realistic_v16_L1v1-v1/MINIAODSIM\n'
p684
sS'Suu8_chi1_HTHT'
p685
S'/SuuToChiChiToHTHTToJets_MSuu-8000_MChi-1000_TuneCP5_13TeV-madgraph-pythia8/RunIISummer20UL18MiniAODv2-106X_upgrade2018_realistic_v16_L1v1-v1/MINIAODSIM\n'
p686
sS'Suu7_chi2_HTZT'
p687
S'/SuuToChiChiToHTZTToJets_MSuu-7000_MChi-2000_TuneCP5_13TeV-madgraph-pythia8/RunIISummer20UL18MiniAODv2-106X_upgrade2018_realistic_v16_L1v1-v2/MINIAODSIM\n'
p688
sS'Suu7_chi1p5_WBZT'
p689
S'/SuuToChiChiToWBZTToJets_MSuu-7000_MChi-1500_TuneCP5_13TeV-madgraph-pythia8/RunIISummer20UL18MiniAODv2-106X_upgrade2018_realistic_v16_L1v1-v3/MINIAODSIM\n'
p690
sS'Suu8_chi1_WBZT'
p691
S'/SuuToChiChiToWBZTToJets_MSuu-8000_MChi-1000_TuneCP5_13TeV-madgraph-pythia8/RunIISummer20UL18MiniAODv2-106X_upgrade2018_realistic_v16_L1v1-v3/MINIAODSIM\n'
p692
sS'Suu8_chi2_ZTZT'
p693
S'/SuuToChiChiToZTZTToJets_MSuu-8000_MChi-2000_TuneCP5_13TeV-madgraph-pythia8/RunIISummer20UL18MiniAODv2-106X_upgrade2018_realistic_v16_L1v1-v3/MINIAODSIM\n'
p694
sS'Suu4_chi1p5_HTHT'
p695
S'/SuuToChiChiToHTHTToJets_MSuu-4000_MChi-1500_TuneCP5_13TeV-madgraph-pythia8/RunIISummer20UL18MiniAODv2-106X_upgrade2018_realistic_v16_L1v1-v3/MINIAODSIM\n'
p696
sS'Suu8_chi1_WBHT'
p697
S'/SuuToChiChiToWBHTToJets_MSuu-8000_MChi-1000_TuneCP5_13TeV-madgraph-pythia8/RunIISummer20UL18MiniAODv2-106X_upgrade2018_realistic_v16_L1v1-v1/MINIAODSIM\n'
p698
sS'Suu8_chi3_WBHT'
p699
S'/SuuToChiChiToWBHTToJets_MSuu-8000_MChi-3000_TuneCP5_13TeV-madgraph-pythia8/RunIISummer20UL18MiniAODv2-106X_upgrade2018_realistic_v16_L1v1-v3/MINIAODSIM\n'
p700
sS'Suu7_chi1_HTHT'
p701
S'/SuuToChiChiToHTHTToJets_MSuu-7000_MChi-1000_TuneCP5_13TeV-madgraph-pythia8/RunIISummer20UL18MiniAODv2-106X_upgrade2018_realistic_v16_L1v1-v3/MINIAODSIM\n'
p702
sS'Suu7_chi3_HTHT'
p703
S'/SuuToChiChiToHTHTToJets_MSuu-7000_MChi-3000_TuneCP5_13TeV-madgraph-pythia8/RunIISummer20UL18MiniAODv2-106X_upgrade2018_realistic_v16_L1v1-v2/MINIAODSIM\n'
p704
sS'Suu4_chi1_HTZT'
p705
S'/SuuToChiChiToHTZTToJets_MSuu-4000_MChi-1000_TuneCP5_13TeV-madgraph-pythia8/RunIISummer20UL18MiniAODv2-106X_upgrade2018_realistic_v16_L1v1-v1/MINIAODSIM\n'
p706
sS'Suu6_chi1_HTHT'
p707
S'/SuuToChiChiToHTHTToJets_MSuu-6000_MChi-1000_TuneCP5_13TeV-madgraph-pythia8/RunIISummer20UL18MiniAODv2-106X_upgrade2018_realistic_v16_L1v1-v3/MINIAODSIM\n'
p708
sS'Suu4_chi1_ZTZT'
p709
S'/SuuToChiChiToZTZTToJets_MSuu-4000_MChi-1000_TuneCP5_13TeV-madgraph-pythia8/RunIISummer20UL18MiniAODv2-106X_upgrade2018_realistic_v16_L1v1-v3/MINIAODSIM\n'
p710
sS'Suu5_chi1p5_HTZT'
p711
S'/SuuToChiChiToHTZTToJets_MSuu-5000_MChi-1500_TuneCP5_13TeV-madgraph-pythia8/RunIISummer20UL18MiniAODv2-106X_upgrade2018_realistic_v16_L1v1-v3/MINIAODSIM\n'
p712
sS'Suu5_chi1p5_WBHT'
p713
S'/SuuToChiChiToWBHTToJets_MSuu-5000_MChi-1500_TuneCP5_13TeV-madgraph-pythia8/RunIISummer20UL18MiniAODv2-106X_upgrade2018_realistic_v16_L1v1-v3/MINIAODSIM\n'
p714
sS'Suu7_chi3_WBZT'
p715
S'/SuuToChiChiToWBZTToJets_MSuu-7000_MChi-3000_TuneCP5_13TeV-madgraph-pythia8/RunIISummer20UL18MiniAODv2-106X_upgrade2018_realistic_v16_L1v1-v1/MINIAODSIM\n'
p716
sS'Suu6_chi2_HTHT'
p717
S'/SuuToChiChiToHTHTToJets_MSuu-6000_MChi-2000_TuneCP5_13TeV-madgraph-pythia8/RunIISummer20UL18MiniAODv2-106X_upgrade2018_realistic_v16_L1v1-v2/MINIAODSIM\n'
p718
sS'Suu6_chi1p5_ZTZT'
p719
S'/SuuToChiChiToZTZTToJets_MSuu-6000_MChi-1500_TuneCP5_13TeV-madgraph-pythia8/RunIISummer20UL18MiniAODv2-106X_upgrade2018_realistic_v16_L1v1-v1/MINIAODSIM\n'
p720
sS'Suu4_chi1p5_ZTZT'
p721
S'/SuuToChiChiToZTZTToJets_MSuu-4000_MChi-1500_TuneCP5_13TeV-madgraph-pythia8/RunIISummer20UL18MiniAODv2-106X_upgrade2018_realistic_v16_L1v1-v3/MINIAODSIM\n'
p722
sS'Suu6_chi12p5_WBWB'
p723
S'/SuuToChiChiToWBWBToJets_MSuu-6000_MChi-2500_TuneCP5_13TeV-madgraph-pythia8/RunIISummer20UL18MiniAODv2-106X_upgrade2018_realistic_v16_L1v1-v3/MINIAODSIM\n'
p724
sS'Suu8_chi2_HTZT'
p725
S'/SuuToChiChiToHTZTToJets_MSuu-8000_MChi-2000_TuneCP5_13TeV-madgraph-pythia8/RunIISummer20UL18MiniAODv2-106X_upgrade2018_realistic_v16_L1v1-v3/MINIAODSIM\n'
p726
sS'Suu7_chi12p5_WBZT'
p727
S'/SuuToChiChiToWBZTToJets_MSuu-7000_MChi-2500_TuneCP5_13TeV-madgraph-pythia8/RunIISummer20UL18MiniAODv2-106X_upgrade2018_realistic_v16_L1v1-v1/MINIAODSIM\n'
p728
sS'Suu8_chi3_HTZT'
p729
S'/SuuToChiChiToHTZTToJets_MSuu-8000_MChi-3000_TuneCP5_13TeV-madgraph-pythia8/RunIISummer20UL18MiniAODv2-106X_upgrade2018_realistic_v16_L1v1-v3/MINIAODSIM\n'
p730
sS'Suu6_chi12p5_ZTZT'
p731
S'/SuuToChiChiToZTZTToJets_MSuu-6000_MChi-2500_TuneCP5_13TeV-madgraph-pythia8/RunIISummer20UL18MiniAODv2-106X_upgrade2018_realistic_v16_L1v1-v3/MINIAODSIM\n'
p732
sS'Suu7_chi1_HTZT'
p733
S'/SuuToChiChiToHTZTToJets_MSuu-7000_MChi-1000_TuneCP5_13TeV-madgraph-pythia8/RunIISummer20UL18MiniAODv2-106X_upgrade2018_realistic_v16_L1v1-v3/MINIAODSIM\n'
p734
sS'Suu4_chi1p5_WBHT'
p735
S'/SuuToChiChiToWBHTToJets_MSuu-4000_MChi-1500_TuneCP5_13TeV-madgraph-pythia8/RunIISummer20UL18MiniAODv2-106X_upgrade2018_realistic_v16_L1v1-v3/MINIAODSIM\n'
p736
sS'Suu8_chi12p5_WBWB'
p737
S'/SuuToChiChiToWBWBToJets_MSuu-8000_MChi-2500_TuneCP5_13TeV-madgraph-pythia8/RunIISummer20UL18MiniAODv2-106X_upgrade2018_realistic_v16_L1v1-v1/MINIAODSIM\n'
p738
sS'Suu5_chi1p5_HTHT'
p739
S'/SuuToChiChiToHTHTToJets_MSuu-5000_MChi-1500_TuneCP5_13TeV-madgraph-pythia8/RunIISummer20UL18MiniAODv2-106X_upgrade2018_realistic_v16_L1v1-v3/MINIAODSIM\n'
p740
sS'Suu5_chi2_WBWB'
p741
S'/SuuToChiChiToWBWBToJets_MSuu-5000_MChi-2000_TuneCP5_13TeV-madgraph-pythia8/RunIISummer20UL18MiniAODv2-106X_upgrade2018_realistic_v16_L1v1-v3/MINIAODSIM\n'
p742
sS'Suu8_chi1_HTZT'
p743
S'/SuuToChiChiToHTZTToJets_MSuu-8000_MChi-1000_TuneCP5_13TeV-madgraph-pythia8/RunIISummer20UL18MiniAODv2-106X_upgrade2018_realistic_v16_L1v1-v1/MINIAODSIM\n'
p744
sS'Suu4_chi1_WBHT'
p745
S'/SuuToChiChiToWBHTToJets_MSuu-4000_MChi-1000_TuneCP5_13TeV-madgraph-pythia8/RunIISummer20UL18MiniAODv2-106X_upgrade2018_realistic_v16_L1v1-v1/MINIAODSIM\n'
p746
sS'Suu8_chi12p5_ZTZT'
p747
S'/SuuToChiChiToZTZTToJets_MSuu-8000_MChi-2500_TuneCP5_13TeV-madgraph-pythia8/RunIISummer20UL18MiniAODv2-106X_upgrade2018_realistic_v16_L1v1-v2/MINIAODSIM\n'
p748
sS'Suu8_chi2_WBHT'
p749
S'/SuuToChiChiToWBHTToJets_MSuu-8000_MChi-2000_TuneCP5_13TeV-madgraph-pythia8/RunIISummer20UL18MiniAODv2-106X_upgrade2018_realistic_v16_L1v1-v1/MINIAODSIM\n'
p750
sS'Suu5_chi1_WBZT'
p751
S'/SuuToChiChiToWBZTToJets_MSuu-5000_MChi-1000_TuneCP5_13TeV-madgraph-pythia8/RunIISummer20UL18MiniAODv2-106X_upgrade2018_realistic_v16_L1v1-v1/MINIAODSIM\n'
p752
sS'Suu5_chi1p5_WBWB'
p753
S'/SuuToChiChiToWBWBToJets_MSuu-5000_MChi-1500_TuneCP5_13TeV-madgraph-pythia8/RunIISummer20UL18MiniAODv2-106X_upgrade2018_realistic_v16_L1v1-v3/MINIAODSIM\n'
p754
sS'Suu8_chi1_ZTZT'
p755
S'/SuuToChiChiToZTZTToJets_MSuu-8000_MChi-1000_TuneCP5_13TeV-madgraph-pythia8/RunIISummer20UL18MiniAODv2-106X_upgrade2018_realistic_v16_L1v1-v1/MINIAODSIM\n'
p756
sS'Suu8_chi3_HTHT'
p757
S'/SuuToChiChiToHTHTToJets_MSuu-8000_MChi-3000_TuneCP5_13TeV-madgraph-pythia8/RunIISummer20UL18MiniAODv2-106X_upgrade2018_realistic_v16_L1v1-v3/MINIAODSIM\n'
p758
sS'Suu7_chi3_WBWB'
p759
S'/SuuToChiChiToWBWBToJets_MSuu-7000_MChi-3000_TuneCP5_13TeV-madgraph-pythia8/RunIISummer20UL18MiniAODv2-106X_upgrade2018_realistic_v16_L1v1-v3/MINIAODSIM\n'
p760
sS'Suu8_chi12p5_HTHT'
p761
S'/SuuToChiChiToHTHTToJets_MSuu-8000_MChi-2500_TuneCP5_13TeV-madgraph-pythia8/RunIISummer20UL18MiniAODv2-106X_upgrade2018_realistic_v16_L1v1-v1/MINIAODSIM\n'
p762
sS'Suu8_chi12p5_WBZT'
p763
S'/SuuToChiChiToWBZTToJets_MSuu-8000_MChi-2500_TuneCP5_13TeV-madgraph-pythia8/RunIISummer20UL18MiniAODv2-106X_upgrade2018_realistic_v16_L1v1-v1/MINIAODSIM\n'
p764
sS'Suu7_chi1_WBWB'
p765
S'/SuuToChiChiToWBWBToJets_MSuu-7000_MChi-1000_TuneCP5_13TeV-madgraph-pythia8/RunIISummer20UL18MiniAODv2-106X_upgrade2018_realistic_v16_L1v1-v1/MINIAODSIM\n'
p766
sS'Suu7_chi1p5_HTHT'
p767
S'/SuuToChiChiToHTHTToJets_MSuu-7000_MChi-1500_TuneCP5_13TeV-madgraph-pythia8/RunIISummer20UL18MiniAODv2-106X_upgrade2018_realistic_v16_L1v1-v3/MINIAODSIM\n'
p768
sS'Suu5_chi1_HTZT'
p769
S'/SuuToChiChiToHTZTToJets_MSuu-5000_MChi-1000_TuneCP5_13TeV-madgraph-pythia8/RunIISummer20UL18MiniAODv2-106X_upgrade2018_realistic_v16_L1v1-v3/MINIAODSIM\n'
p770
sS'Suu6_chi1p5_HTZT'
p771
S'/SuuToChiChiToHTZTToJets_MSuu-6000_MChi-1500_TuneCP5_13TeV-madgraph-pythia8/RunIISummer20UL18MiniAODv2-106X_upgrade2018_realistic_v16_L1v1-v3/MINIAODSIM\n'
p772
sS'Suu7_chi3_ZTZT'
p773
S'/SuuToChiChiToZTZTToJets_MSuu-7000_MChi-3000_TuneCP5_13TeV-madgraph-pythia8/RunIISummer20UL18MiniAODv2-106X_upgrade2018_realistic_v16_L1v1-v1/MINIAODSIM\n'
p774
sS'Suu5_chi1_WBHT'
p775
S'/SuuToChiChiToWBHTToJets_MSuu-5000_MChi-1000_TuneCP5_13TeV-madgraph-pythia8/RunIISummer20UL18MiniAODv2-106X_upgrade2018_realistic_v16_L1v1-v1/MINIAODSIM\n'
p776
sS'Suu6_chi12p5_HTZT'
p777
S'/SuuToChiChiToHTZTToJets_MSuu-6000_MChi-2500_TuneCP5_13TeV-madgraph-pythia8/RunIISummer20UL18MiniAODv2-106X_upgrade2018_realistic_v16_L1v1-v3/MINIAODSIM\n'
p778
sS'Suu7_chi1p5_WBWB'
p779
S'/SuuToChiChiToWBWBToJets_MSuu-7000_MChi-1500_TuneCP5_13TeV-madgraph-pythia8/RunIISummer20UL18MiniAODv2-106X_upgrade2018_realistic_v16_L1v1-v1/MINIAODSIM\n'
p780
sS'Suu8_chi1p5_HTHT'
p781
S'/SuuToChiChiToHTHTToJets_MSuu-8000_MChi-1500_TuneCP5_13TeV-madgraph-pythia8/RunIISummer20UL18MiniAODv2-106X_upgrade2018_realistic_v16_L1v1-v1/MINIAODSIM\n'
p782
sS'Suu8_chi12p5_WBHT'
p783
S'/SuuToChiChiToWBHTToJets_MSuu-8000_MChi-2500_TuneCP5_13TeV-madgraph-pythia8/RunIISummer20UL18MiniAODv2-106X_upgrade2018_realistic_v16_L1v1-v3/MINIAODSIM\n'
p784
sS'Suu4_chi1_WBZT'
p785
S'/SuuToChiChiToWBZTToJets_MSuu-4000_MChi-1000_TuneCP5_13TeV-madgraph-pythia8/RunIISummer20UL18MiniAODv2-106X_upgrade2018_realistic_v16_L1v1-v1/MINIAODSIM\n'
p786
sS'Suu6_chi2_WBZT'
p787
S'/SuuToChiChiToWBZTToJets_MSuu-6000_MChi-2000_TuneCP5_13TeV-madgraph-pythia8/RunIISummer20UL18MiniAODv2-106X_upgrade2018_realistic_v16_L1v1-v1/MINIAODSIM\n'
p788
sS'Suu5_chi2_HTHT'
p789
S'/SuuToChiChiToHTHTToJets_MSuu-5000_MChi-2000_TuneCP5_13TeV-madgraph-pythia8/RunIISummer20UL18MiniAODv2-106X_upgrade2018_realistic_v16_L1v1-v3/MINIAODSIM\n'
p790
sS'Suu6_chi1p5_WBZT'
p791
S'/SuuToChiChiToWBZTToJets_MSuu-6000_MChi-1500_TuneCP5_13TeV-madgraph-pythia8/RunIISummer20UL18MiniAODv2-106X_upgrade2018_realistic_v16_L1v1-v1/MINIAODSIM\n'
p792
sS'Suu8_chi1_WBWB'
p793
S'/SuuToChiChiToWBWBToJets_MSuu-8000_MChi-1000_TuneCP5_13TeV-madgraph-pythia8/RunIISummer20UL18MiniAODv2-106X_upgrade2018_realistic_v16_L1v1-v1/MINIAODSIM\n'
p794
sS'Suu6_chi1_WBWB'
p795
S'/SuuToChiChiToWBWBToJets_MSuu-6000_MChi-1000_TuneCP5_13TeV-madgraph-pythia8/RunIISummer20UL18MiniAODv2-106X_upgrade2018_realistic_v16_L1v1-v1/MINIAODSIM\n'
p796
sS'Suu8_chi2_WBWB'
p797
S'/SuuToChiChiToWBWBToJets_MSuu-8000_MChi-2000_TuneCP5_13TeV-madgraph-pythia8/RunIISummer20UL18MiniAODv2-106X_upgrade2018_realistic_v16_L1v1-v1/MINIAODSIM\n'
p798
sS'Suu6_chi1_WBHT'
p799
S'/SuuToChiChiToWBHTToJets_MSuu-6000_MChi-1000_TuneCP5_13TeV-madgraph-pythia8/RunIISummer20UL18MiniAODv2-106X_upgrade2018_realistic_v16_L1v1-v3/MINIAODSIM\n'
p800
sS'Suu7_chi12p5_WBHT'
p801
S'/SuuToChiChiToWBHTToJets_MSuu-7000_MChi-2500_TuneCP5_13TeV-madgraph-pythia8/RunIISummer20UL18MiniAODv2-106X_upgrade2018_realistic_v16_L1v1-v1/MINIAODSIM\n'
p802
sS'Suu5_chi2_WBHT'
p803
S'/SuuToChiChiToWBHTToJets_MSuu-5000_MChi-2000_TuneCP5_13TeV-madgraph-pythia8/RunIISummer20UL18MiniAODv2-106X_upgrade2018_realistic_v16_L1v1-v1/MINIAODSIM\n'
p804
sS'Suu8_chi2_HTHT'
p805
S'/SuuToChiChiToHTHTToJets_MSuu-8000_MChi-2000_TuneCP5_13TeV-madgraph-pythia8/RunIISummer20UL18MiniAODv2-106X_upgrade2018_realistic_v16_L1v1-v1/MINIAODSIM\n'
p806
sS'Suu7_chi2_HTHT'
p807
S'/SuuToChiChiToHTHTToJets_MSuu-7000_MChi-2000_TuneCP5_13TeV-madgraph-pythia8/RunIISummer20UL18MiniAODv2-106X_upgrade2018_realistic_v16_L1v1-v3/MINIAODSIM\n'
p808
sS'Suu7_chi2_WBZT'
p809
S'/SuuToChiChiToWBZTToJets_MSuu-7000_MChi-2000_TuneCP5_13TeV-madgraph-pythia8/RunIISummer20UL18MiniAODv2-106X_upgrade2018_realistic_v16_L1v1-v3/MINIAODSIM\n'
p810
sS'Suu4_chi1p5_WBZT'
p811
S'/SuuToChiChiToWBZTToJets_MSuu-4000_MChi-1500_TuneCP5_13TeV-madgraph-pythia8/RunIISummer20UL18MiniAODv2-106X_upgrade2018_realistic_v16_L1v1-v3/MINIAODSIM\n'
p812
sS'Suu8_chi1p5_HTZT'
p813
S'/SuuToChiChiToHTZTToJets_MSuu-8000_MChi-1500_TuneCP5_13TeV-madgraph-pythia8/RunIISummer20UL18MiniAODv2-106X_upgrade2018_realistic_v16_L1v1-v2/MINIAODSIM\n'
p814
sS'Suu7_chi1p5_WBHT'
p815
S'/SuuToChiChiToWBHTToJets_MSuu-7000_MChi-1500_TuneCP5_13TeV-madgraph-pythia8/RunIISummer20UL18MiniAODv2-106X_upgrade2018_realistic_v16_L1v1-v3/MINIAODSIM\n'
p816
sS'Suu4_chi1_HTHT'
p817
S'/SuuToChiChiToHTHTToJets_MSuu-4000_MChi-1000_TuneCP5_13TeV-madgraph-pythia8/RunIISummer20UL18MiniAODv2-106X_upgrade2018_realistic_v16_L1v1-v1/MINIAODSIM\n'
p818
sS'Suu7_chi2_WBHT'
p819
S'/SuuToChiChiToWBHTToJets_MSuu-7000_MChi-2000_TuneCP5_13TeV-madgraph-pythia8/RunIISummer20UL18MiniAODv2-106X_upgrade2018_realistic_v16_L1v1-v3/MINIAODSIM\n'
p820
sS'Suu6_chi1p5_HTHT'
p821
S'/SuuToChiChiToHTHTToJets_MSuu-6000_MChi-1500_TuneCP5_13TeV-madgraph-pythia8/RunIISummer20UL18MiniAODv2-106X_upgrade2018_realistic_v16_L1v1-v1/MINIAODSIM\n'
p822
sS'Suu6_chi1p5_WBHT'
p823
S'/SuuToChiChiToWBHTToJets_MSuu-6000_MChi-1500_TuneCP5_13TeV-madgraph-pythia8/RunIISummer20UL18MiniAODv2-106X_upgrade2018_realistic_v16_L1v1-v1/MINIAODSIM\n'
p824
sS'Suu7_chi2_WBWB'
p825
S'/SuuToChiChiToWBWBToJets_MSuu-7000_MChi-2000_TuneCP5_13TeV-madgraph-pythia8/RunIISummer20UL18MiniAODv2-106X_upgrade2018_realistic_v16_L1v1-v3/MINIAODSIM\n'
p826
sS'Suu7_chi1p5_HTZT'
p827
S'/SuuToChiChiToHTZTToJets_MSuu-7000_MChi-1500_TuneCP5_13TeV-madgraph-pythia8/RunIISummer20UL18MiniAODv2-106X_upgrade2018_realistic_v16_L1v1-v3/MINIAODSIM\n'
p828
sS'Suu8_chi3_WBZT'
p829
S'/SuuToChiChiToWBZTToJets_MSuu-8000_MChi-3000_TuneCP5_13TeV-madgraph-pythia8/RunIISummer20UL18MiniAODv2-106X_upgrade2018_realistic_v16_L1v1-v1/MINIAODSIM\n'
p830
sS'Suu4_chi1_WBWB'
p831
S'/SuuToChiChiToWBWBToJets_MSuu-4000_MChi-1000_TuneCP5_13TeV-madgraph-pythia8/RunIISummer20UL18MiniAODv2-106X_upgrade2018_realistic_v16_L1v1-v1/MINIAODSIM\n'
p832
sS'Suu5_chi1_HTHT'
p833
S'/SuuToChiChiToHTHTToJets_MSuu-5000_MChi-1000_TuneCP5_13TeV-madgraph-pythia8/RunIISummer20UL18MiniAODv2-106X_upgrade2018_realistic_v16_L1v1-v1/MINIAODSIM\n'
p834
sS'Suu8_chi2_WBZT'
p835
S'/SuuToChiChiToWBZTToJets_MSuu-8000_MChi-2000_TuneCP5_13TeV-madgraph-pythia8/RunIISummer20UL18MiniAODv2-106X_upgrade2018_realistic_v16_L1v1-v1/MINIAODSIM\n'
p836
sS'Suu5_chi1p5_WBZT'
p837
S'/SuuToChiChiToWBZTToJets_MSuu-5000_MChi-1500_TuneCP5_13TeV-madgraph-pythia8/RunIISummer20UL18MiniAODv2-106X_upgrade2018_realistic_v16_L1v1-v1/MINIAODSIM\n'
p838
sS'Suu5_chi1_ZTZT'
p839
S'/SuuToChiChiToZTZTToJets_MSuu-5000_MChi-1000_TuneCP5_13TeV-madgraph-pythia8/RunIISummer20UL18MiniAODv2-106X_upgrade2018_realistic_v16_L1v1-v1/MINIAODSIM\n'
p840
sS'Suu7_chi1_WBHT'
p841
S'/SuuToChiChiToWBHTToJets_MSuu-7000_MChi-1000_TuneCP5_13TeV-madgraph-pythia8/RunIISummer20UL18MiniAODv2-106X_upgrade2018_realistic_v16_L1v1-v1/MINIAODSIM\n'
p842
sS'Suu5_chi1_WBWB'
p843
S'/SuuToChiChiToWBWBToJets_MSuu-5000_MChi-1000_TuneCP5_13TeV-madgraph-pythia8/RunIISummer20UL18MiniAODv2-106X_upgrade2018_realistic_v16_L1v1-v3/MINIAODSIM\n'
p844
sS'Suu6_chi12p5_WBHT'
p845
S'/SuuToChiChiToWBHTToJets_MSuu-6000_MChi-2500_TuneCP5_13TeV-madgraph-pythia8/RunIISummer20UL18MiniAODv2-106X_upgrade2018_realistic_v16_L1v1-v1/MINIAODSIM\n'
p846
sS'Suu5_chi2_WBZT'
p847
S'/SuuToChiChiToWBZTToJets_MSuu-5000_MChi-2000_TuneCP5_13TeV-madgraph-pythia8/RunIISummer20UL18MiniAODv2-106X_upgrade2018_realistic_v16_L1v1-v1/MINIAODSIM\n'
p848
sS'Suu7_chi2_ZTZT'
p849
S'/SuuToChiChiToZTZTToJets_MSuu-7000_MChi-2000_TuneCP5_13TeV-madgraph-pythia8/RunIISummer20UL18MiniAODv2-106X_upgrade2018_realistic_v16_L1v1-v1/MINIAODSIM\n'
p850
sS'Suu7_chi12p5_ZTZT'
p851
S'/SuuToChiChiToZTZTToJets_MSuu-7000_MChi-2500_TuneCP5_13TeV-madgraph-pythia8/RunIISummer20UL18MiniAODv2-106X_upgrade2018_realistic_v16_L1v1-v1/MINIAODSIM\n'
p852
sS'Suu6_chi1_HTZT'
p853
S'/SuuToChiChiToHTZTToJets_MSuu-6000_MChi-1000_TuneCP5_13TeV-madgraph-pythia8/RunIISummer20UL18MiniAODv2-106X_upgrade2018_realistic_v16_L1v1-v3/MINIAODSIM\n'
p854
sS'Suu8_chi1p5_ZTZT'
p855
S'/SuuToChiChiToZTZTToJets_MSuu-8000_MChi-1500_TuneCP5_13TeV-madgraph-pythia8/RunIISummer20UL18MiniAODv2-106X_upgrade2018_realistic_v16_L1v1-v1/MINIAODSIM\n'
p856
sS'Suu7_chi3_HTZT'
p857
S'/SuuToChiChiToHTZTToJets_MSuu-7000_MChi-3000_TuneCP5_13TeV-madgraph-pythia8/RunIISummer20UL18MiniAODv2-106X_upgrade2018_realistic_v16_L1v1-v3/MINIAODSIM\n'
p858
sS'Suu7_chi12p5_WBWB'
p859
S'/SuuToChiChiToWBWBToJets_MSuu-7000_MChi-2500_TuneCP5_13TeV-madgraph-pythia8/RunIISummer20UL18MiniAODv2-106X_upgrade2018_realistic_v16_L1v1-v3/MINIAODSIM\n'
p860
sS'Suu7_chi1p5_ZTZT'
p861
S'/SuuToChiChiToZTZTToJets_MSuu-7000_MChi-1500_TuneCP5_13TeV-madgraph-pythia8/RunIISummer20UL18MiniAODv2-106X_upgrade2018_realistic_v16_L1v1-v1/MINIAODSIM\n'
p862
sS'Suu6_chi12p5_WBZT'
p863
S'/SuuToChiChiToWBZTToJets_MSuu-6000_MChi-2500_TuneCP5_13TeV-madgraph-pythia8/RunIISummer20UL18MiniAODv2-106X_upgrade2018_realistic_v16_L1v1-v1/MINIAODSIM\n'
p864
sS'Suu8_chi12p5_HTZT'
p865
S'/SuuToChiChiToHTZTToJets_MSuu-8000_MChi-2500_TuneCP5_13TeV-madgraph-pythia8/RunIISummer20UL18MiniAODv2-106X_upgrade2018_realistic_v16_L1v1-v2/MINIAODSIM\n'
p866
sS'Suu6_chi1_ZTZT'
p867
S'/SuuToChiChiToZTZTToJets_MSuu-6000_MChi-1000_TuneCP5_13TeV-madgraph-pythia8/RunIISummer20UL18MiniAODv2-106X_upgrade2018_realistic_v16_L1v1-v3/MINIAODSIM\n'
p868
sS'Suu8_chi1p5_WBWB'
p869
S'/SuuToChiChiToWBWBToJets_MSuu-8000_MChi-1500_TuneCP5_13TeV-madgraph-pythia8/RunIISummer20UL18MiniAODv2-106X_upgrade2018_realistic_v16_L1v1-v1/MINIAODSIM\n'
p870
sS'Suu6_chi12p5_HTHT'
p871
S'/SuuToChiChiToHTHTToJets_MSuu-6000_MChi-2500_TuneCP5_13TeV-madgraph-pythia8/RunIISummer20UL18MiniAODv2-106X_upgrade2018_realistic_v16_L1v1-v3/MINIAODSIM\n'
p872
sS'Suu8_chi1p5_WBHT'
p873
S'/SuuToChiChiToWBHTToJets_MSuu-8000_MChi-1500_TuneCP5_13TeV-madgraph-pythia8/RunIISummer20UL18MiniAODv2-106X_upgrade2018_realistic_v16_L1v1-v1/MINIAODSIM\n'
p874
ss.