(dp0
S'OriginalConfig'
p1
ccopy_reg
_reconstructor
p2
(cWMCore.Configuration
Configuration
p3
c__builtin__
object
p4
Ntp5
Rp6
(dp7
S'Site'
p8
g2
(cWMCore.Configuration
ConfigSection
p9
g4
Ntp10
Rp11
(dp12
S'_internal_skipChecks'
p13
I00
sS'_internal_documentation'
p14
S''
p15
sS'_internal_settings'
p16
c__builtin__
set
p17
((lp18
S'storageSite'
p19
atp20
Rp21
sS'_internal_name'
p22
g8
sS'_internal_docstrings'
p23
(dp24
sS'_internal_children'
p25
g17
((lp26
tp27
Rp28
sg19
S'T3_US_FNALLPC'
p29
sS'_internal_parent_ref'
p30
NsbsS'_internal_sections'
p31
(lp32
S'General'
p33
aS'JobType'
p34
aS'Data'
p35
ag8
aS'User'
p36
aS'Debug'
p37
asg36
g2
(g9
g4
Ntp38
Rp39
(dp40
g13
I00
sg14
g15
sg16
g17
((lp41
tp42
Rp43
sg22
g36
sg23
(dp44
sg25
g17
((lp45
tp46
Rp47
sg30
Nsbsg37
g2
(g9
g4
Ntp48
Rp49
(dp50
g13
I00
sg14
g15
sg16
g17
((lp51
tp52
Rp53
sg22
g37
sg23
(dp54
sg25
g17
((lp55
tp56
Rp57
sg30
Nsbsg33
g2
(g9
g4
Ntp58
Rp59
(dp60
g13
I00
sg14
g15
sg16
g17
((lp61
S'transferOutputs'
p62
aS'workArea'
p63
aS'requestName'
p64
atp65
Rp66
sg22
g33
sg23
(dp67
sg62
I01
sg25
g17
((lp68
tp69
Rp70
sg64
S'clustAlg_dataH_2016_nom_AltDatasets_000'
p71
sg30
Nsg63
S'crab_projects'
p72
sbsg35
g2
(g9
g4
Ntp73
Rp74
(dp75
S'inputDataset'
p76
S'/JetHT/Run2016H-UL2016_MiniAODv2-v2/MINIAOD'
p77
sS'outputDatasetTag'
p78
S'clustAlg_dataH_2016_nom'
p79
sg13
I00
sg14
g15
sg16
g17
((lp80
g76
ag78
aS'publication'
p81
aS'splitting'
p82
aS'lumiMask'
p83
aS'outLFNDirBase'
p84
atp85
Rp86
sg22
g35
sg82
S'Automatic'
p87
sg23
(dp88
sg25
g17
((lp89
tp90
Rp91
sg84
S'/store/user/ecannaer/SuuToChiChi_20241220_22160'
p92
sg30
Nsg83
S'../lumimasks/Cert_271036-284044_13TeV_Legacy2016_Collisions16_JSON.txt'
p93
sg81
I00
sbsg34
g2
(g9
g4
Ntp94
Rp95
(dp96
g13
I00
sg14
g15
sg16
g17
((lp97
S'psetName'
p98
aS'pluginName'
p99
aS'allowUndistributedCMSSW'
p100
aS'maxMemoryMB'
p101
atp102
Rp103
sg22
g34
sg23
(dp104
sg99
S'Analysis'
p105
sg25
g17
((lp106
tp107
Rp108
sg100
I01
sg98
S'../allCfgs/clusteringAnalyzer_dataH_2016_cfg.py'
p109
sg30
Nsg101
I2000
sbsbsS'voGroup'
p110
g15
sS'Server'
p111
S'cmsweb.cern.ch'
p112
sS'instance'
p113
S'prod'
p114
sS'RequestName'
p115
V250126_091801:ecannaer_crab_clustAlg_dataH_2016_nom_AltDatasets_000
p116
sS'voRole'
p117
S'NULL'
p118
sS'Port'
p119
g15
s.