(dp0
S'OriginalConfig'
p1
ccopy_reg
_reconstructor
p2
(cWMCore.Configuration
Configuration
p3
c__builtin__
object
p4
Ntp5
Rp6
(dp7
S'Site'
p8
g2
(cWMCore.Configuration
ConfigSection
p9
g4
Ntp10
Rp11
(dp12
S'_internal_skipChecks'
p13
I00
sS'_internal_documentation'
p14
S''
p15
sS'_internal_settings'
p16
c__builtin__
set
p17
((lp18
S'storageSite'
p19
atp20
Rp21
sS'_internal_name'
p22
g8
sS'_internal_docstrings'
p23
(dp24
sS'_internal_children'
p25
g17
((lp26
tp27
Rp28
sg19
S'T3_US_FNALLPC'
p29
sS'_internal_parent_ref'
p30
NsbsS'_internal_sections'
p31
(lp32
S'General'
p33
aS'JobType'
p34
aS'Data'
p35
ag8
aS'User'
p36
aS'Debug'
p37
asg36
g2
(g9
g4
Ntp38
Rp39
(dp40
g13
I00
sg14
g15
sg16
g17
((lp41
tp42
Rp43
sg22
g36
sg23
(dp44
sg25
g17
((lp45
tp46
Rp47
sg30
Nsbsg37
g2
(g9
g4
Ntp48
Rp49
(dp50
g13
I00
sg14
g15
sg16
g17
((lp51
tp52
Rp53
sg22
g37
sg23
(dp54
sg25
g17
((lp55
tp56
Rp57
sg30
Nsbsg33
g2
(g9
g4
Ntp58
Rp59
(dp60
g13
I00
sg14
g15
sg16
g17
((lp61
S'transferOutputs'
p62
aS'workArea'
p63
aS'requestName'
p64
atp65
Rp66
sg22
g33
sg23
(dp67
sg62
I01
sg25
g17
((lp68
tp69
Rp70
sg64
S'clustAlg_QCDMC2000toInf_2016_JEC2_AltDatasets_000'
p71
sg30
Nsg63
S'crab_projects'
p72
sbsg35
g2
(g9
g4
Ntp73
Rp74
(dp75
S'inputDataset'
p76
S'/QCD_HT2000toInf_TuneCP5_PSWeights_13TeV-madgraphMLM-pythia8/RunIISummer20UL16MiniAODv2-106X_mcRun2_asymptotic_v17-v1/MINIAODSIM'
p77
sS'outputDatasetTag'
p78
S'clustAlg_QCDMC2000toInf_2016_JEC2'
p79
sg13
I00
sS'unitsPerJob'
p80
I1
sg14
g15
sg16
g17
((lp81
g76
ag78
aS'publication'
p82
ag80
aS'splitting'
p83
aS'outLFNDirBase'
p84
atp85
Rp86
sg22
g35
sg83
S'FileBased'
p87
sg23
(dp88
sg25
g17
((lp89
tp90
Rp91
sg84
S'/store/user/ecannaer/SuuToChiChi_20241220_22160'
p92
sg30
Nsg82
I00
sbsg34
g2
(g9
g4
Ntp93
Rp94
(dp95
g13
I00
sg14
g15
sg16
g17
((lp96
S'psetName'
p97
aS'pluginName'
p98
aS'allowUndistributedCMSSW'
p99
aS'maxMemoryMB'
p100
atp101
Rp102
sg22
g34
sg23
(dp103
sg98
S'Analysis'
p104
sg25
g17
((lp105
tp106
Rp107
sg99
I01
sg97
S'../allCfgs/clusteringAnalyzer_QCDMC2000toInf_2016_JEC2_cfg.py'
p108
sg30
Nsg100
I3500
sbsbsS'voGroup'
p109
g15
sS'Server'
p110
S'cmsweb.cern.ch'
p111
sS'instance'
p112
S'prod'
p113
sS'RequestName'
p114
V250129_003335:ecannaer_crab_clustAlg_QCDMC2000toInf_2016_JEC2_AltDatasets_000
p115
sS'voRole'
p116
S'NULL'
p117
sS'Port'
p118
g15
s.