(dp0
S'2015'
p1
(dp2
S'Suu6_chi2_WBHT'
p3
(dp4
S'JEC2'
p5
I0
sS'JEC'
p6
I0
sS'JEC1'
p7
I0
sS'nom'
p8
I0
sS'JER'
p9
I0
ssS'Suu8_chi2p5_WBWB'
p10
(dp11
g5
I0
sg6
I0
sg7
I0
sg8
I0
sg9
I0
ssS'Suu6_chi2_WBWB'
p12
(dp13
g5
I0
sg6
I0
sg7
I0
sg8
I0
sg9
I0
ssS'Suu4_chi1p5_WBWB'
p14
(dp15
g5
I0
sg6
I0
sg7
I0
sg8
I0
sg9
I0
ssS'Suu7_chi1_WBZT'
p16
(dp17
g5
I0
sg6
I0
sg7
I0
sg8
I0
sg9
I0
ssS'Suu8_chi2p5_HTHT'
p18
(dp19
g5
I0
sg6
I0
sg7
I0
sg8
I0
sg9
I0
ssS'Suu8_chi3_WBWB'
p20
(dp21
g5
I0
sg6
I0
sg7
I0
sg8
I0
sg9
I0
ssS'Suu6_chi1p5_WBWB'
p22
(dp23
g5
I0
sg6
I0
sg7
I0
sg8
I0
sg9
I0
ssS'Suu6_chi1_WBZT'
p24
(dp25
g5
I0
sg6
I0
sg7
I0
sg8
I0
sg9
I0
ssS'Suu7_chi3_WBHT'
p26
(dp27
g5
I0
sg6
I0
sg7
I0
sg8
I0
sg9
I0
ssS'Suu4_chi1p5_HTZT'
p28
(dp29
g5
I0
sg6
I0
sg7
I0
sg8
I0
sg9
I0
ssS'Suu8_chi1p5_WBZT'
p30
(dp31
g5
I0
sg6
I0
sg7
I0
sg8
I0
sg9
I0
ssS'Suu7_chi1_ZTZT'
p32
(dp33
g5
I0
sg6
I0
sg7
I0
sg8
I0
sg9
I0
ssS'Suu8_chi1_HTHT'
p34
(dp35
g5
I0
sg6
I0
sg7
I0
sg8
I0
sg9
I0
ssS'Suu7_chi2_HTZT'
p36
(dp37
g5
I0
sg6
I0
sg7
I0
sg8
I0
sg9
I0
ssS'Suu7_chi1p5_WBZT'
p38
(dp39
g5
I0
sg6
I0
sg7
I0
sg8
I0
sg9
I0
ssS'Suu8_chi1_WBZT'
p40
(dp41
g5
I0
sg6
I0
sg7
I0
sg8
I0
sg9
I0
ssS'Suu5_chi2_ZTZT'
p42
(dp43
g5
I0
sg6
I0
sg7
I0
sg8
I0
sg9
I0
ssS'Suu8_chi2_ZTZT'
p44
(dp45
g5
I0
sg6
I0
sg7
I0
sg8
I0
sg9
I0
ssS'Suu8_chi2p5_HTZT'
p46
(dp47
g5
I0
sg6
I0
sg7
I0
sg8
I0
sg9
I0
ssS'Suu4_chi1p5_HTHT'
p48
(dp49
g5
I0
sg6
I0
sg7
I0
sg8
I0
sg9
I0
ssS'Suu8_chi1_WBHT'
p50
(dp51
g5
I0
sg6
I0
sg7
I0
sg8
I0
sg9
I0
ssS'Suu8_chi3_WBHT'
p52
(dp53
g5
I0
sg6
I0
sg7
I0
sg8
I0
sg9
I0
ssS'Suu7_chi1_HTHT'
p54
(dp55
g5
I0
sg6
I0
sg7
I0
sg8
I0
sg9
I0
ssS'Suu7_chi2p5_WBHT'
p56
(dp57
g5
I0
sg6
I0
sg7
I0
sg8
I0
sg9
I0
ssS'Suu7_chi3_HTHT'
p58
(dp59
g5
I0
sg6
I0
sg7
I0
sg8
I0
sg9
I0
ssS'Suu4_chi1_HTZT'
p60
(dp61
g5
I0
sg6
I0
sg7
I0
sg8
I0
sg9
I0
ssS'Suu6_chi1_HTHT'
p62
(dp63
g5
I0
sg6
I0
sg7
I0
sg8
I0
sg9
I0
ssS'Suu4_chi1_ZTZT'
p64
(dp65
g5
I0
sg6
I0
sg7
I0
sg8
I0
sg9
I0
ssS'Suu5_chi1p5_HTZT'
p66
(dp67
g5
I0
sg6
I0
sg7
I0
sg8
I0
sg9
I0
ssS'Suu5_chi1p5_WBHT'
p68
(dp69
g5
I0
sg6
I0
sg7
I0
sg8
I0
sg9
I0
ssS'Suu7_chi3_WBZT'
p70
(dp71
g5
I0
sg6
I0
sg7
I0
sg8
I0
sg9
I0
ssS'Suu6_chi2_HTHT'
p72
(dp73
g5
I0
sg6
I0
sg7
I0
sg8
I0
sg9
I0
ssS'Suu5_chi1p5_ZTZT'
p74
(dp75
g5
I0
sg6
I0
sg7
I0
sg8
I0
sg9
I0
ssS'Suu6_chi1p5_ZTZT'
p76
(dp77
g5
I0
sg6
I0
sg7
I0
sg8
I0
sg9
I0
ssS'Suu4_chi1p5_ZTZT'
p78
(dp79
g5
I0
sg6
I0
sg7
I0
sg8
I0
sg9
I0
ssS'Suu8_chi2_HTZT'
p80
(dp81
g5
I0
sg6
I0
sg7
I0
sg8
I0
sg9
I0
ssS'Suu8_chi3_HTZT'
p82
(dp83
g5
I0
sg6
I0
sg7
I0
sg8
I0
sg9
I0
ssS'Suu6_chi2p5_ZTZT'
p84
(dp85
g5
I0
sg6
I0
sg7
I0
sg8
I0
sg9
I0
ssS'Suu7_chi1_HTZT'
p86
(dp87
g5
I0
sg6
I0
sg7
I0
sg8
I0
sg9
I0
ssS'Suu6_chi2p5_WBZT'
p88
(dp89
g5
I0
sg6
I0
sg7
I0
sg8
I0
sg9
I0
ssS'Suu6_chi2_HTZT'
p90
(dp91
g5
I0
sg6
I0
sg7
I0
sg8
I0
sg9
I0
ssS'Suu4_chi1p5_WBHT'
p92
(dp93
g5
I0
sg6
I0
sg7
I0
sg8
I0
sg9
I0
ssS'Suu5_chi1p5_HTHT'
p94
(dp95
g5
I0
sg6
I0
sg7
I0
sg8
I0
sg9
I0
ssS'Suu5_chi2_WBWB'
p96
(dp97
g5
I0
sg6
I0
sg7
I0
sg8
I0
sg9
I0
ssS'Suu8_chi1_HTZT'
p98
(dp99
g5
I0
sg6
I0
sg7
I0
sg8
I0
sg9
I0
ssS'Suu4_chi1_WBHT'
p100
(dp101
g5
I0
sg6
I0
sg7
I0
sg8
I0
sg9
I0
ssS'Suu7_chi2p5_WBWB'
p102
(dp103
g5
I0
sg6
I0
sg7
I0
sg8
I0
sg9
I0
ssS'Suu8_chi2_WBHT'
p104
(dp105
g5
I0
sg6
I0
sg7
I0
sg8
I0
sg9
I0
ssS'Suu7_chi2p5_ZTZT'
p106
(dp107
g5
I0
sg6
I0
sg7
I0
sg8
I0
sg9
I0
ssS'Suu5_chi1_WBZT'
p108
(dp109
g5
I0
sg6
I0
sg7
I0
sg8
I0
sg9
I0
ssS'Suu5_chi1p5_WBWB'
p110
(dp111
g5
I0
sg6
I0
sg7
I0
sg8
I0
sg9
I0
ssS'Suu8_chi1_ZTZT'
p112
(dp113
g5
I0
sg6
I0
sg7
I0
sg8
I0
sg9
I0
ssS'Suu8_chi3_HTHT'
p114
(dp115
g5
I0
sg6
I0
sg7
I0
sg8
I0
sg9
I0
ssS'Suu7_chi3_WBWB'
p116
(dp117
g5
I0
sg6
I0
sg7
I0
sg8
I0
sg9
I0
ssS'Suu8_chi3_ZTZT'
p118
(dp119
g5
I0
sg6
I0
sg7
I0
sg8
I0
sg9
I0
ssS'Suu6_chi2p5_HTZT'
p120
(dp121
g5
I0
sg6
I0
sg7
I0
sg8
I0
sg9
I0
ssS'Suu7_chi1_WBWB'
p122
(dp123
g5
I0
sg6
I0
sg7
I0
sg8
I0
sg9
I0
ssS'Suu7_chi2p5_WBZT'
p124
(dp125
g5
I0
sg6
I0
sg7
I0
sg8
I0
sg9
I0
ssS'Suu7_chi1p5_HTHT'
p126
(dp127
g5
I0
sg6
I0
sg7
I0
sg8
I0
sg9
I0
ssS'Suu5_chi1_HTZT'
p128
(dp129
g5
I0
sg6
I0
sg7
I0
sg8
I0
sg9
I0
ssS'Suu6_chi1p5_HTZT'
p130
(dp131
g5
I0
sg6
I0
sg7
I0
sg8
I0
sg9
I0
ssS'Suu8_chi2p5_WBZT'
p132
(dp133
g5
I0
sg6
I0
sg7
I0
sg8
I0
sg9
I0
ssS'Suu5_chi1_WBHT'
p134
(dp135
g5
I0
sg6
I0
sg7
I0
sg8
I0
sg9
I0
ssS'Suu7_chi1p5_WBWB'
p136
(dp137
g5
I0
sg6
I0
sg7
I0
sg8
I0
sg9
I0
ssS'Suu8_chi1p5_HTHT'
p138
(dp139
g5
I0
sg6
I0
sg7
I0
sg8
I0
sg9
I0
ssS'Suu4_chi1_WBZT'
p140
(dp141
g5
I0
sg6
I0
sg7
I0
sg8
I0
sg9
I0
ssS'Suu6_chi2p5_HTHT'
p142
(dp143
g5
I0
sg6
I0
sg7
I0
sg8
I0
sg9
I0
ssS'Suu5_chi2_HTHT'
p144
(dp145
g5
I0
sg6
I0
sg7
I0
sg8
I0
sg9
I0
ssS'Suu6_chi1p5_WBZT'
p146
(dp147
g5
I0
sg6
I0
sg7
I0
sg8
I0
sg9
I0
ssS'Suu8_chi1_WBWB'
p148
(dp149
g5
I0
sg6
I0
sg7
I0
sg8
I0
sg9
I0
ssS'Suu6_chi1_WBWB'
p150
(dp151
g5
I0
sg6
I0
sg7
I0
sg8
I0
sg9
I0
ssS'Suu8_chi2_WBWB'
p152
(dp153
g5
I0
sg6
I0
sg7
I0
sg8
I0
sg9
I0
ssS'Suu6_chi2_ZTZT'
p154
(dp155
g5
I0
sg6
I0
sg7
I0
sg8
I0
sg9
I0
ssS'Suu6_chi2p5_WBWB'
p156
(dp157
g5
I0
sg6
I0
sg7
I0
sg8
I0
sg9
I0
ssS'Suu6_chi1_WBHT'
p158
(dp159
g5
I0
sg6
I0
sg7
I0
sg8
I0
sg9
I0
ssS'Suu7_chi2p5_HTZT'
p160
(dp161
g5
I0
sg6
I0
sg7
I0
sg8
I0
sg9
I0
ssS'Suu8_chi2p5_ZTZT'
p162
(dp163
g5
I0
sg6
I0
sg7
I0
sg8
I0
sg9
I0
ssS'Suu5_chi2_WBHT'
p164
(dp165
g5
I0
sg6
I0
sg7
I0
sg8
I0
sg9
I0
ssS'Suu8_chi2_HTHT'
p166
(dp167
g5
I0
sg6
I0
sg7
I0
sg8
I0
sg9
I0
ssS'Suu7_chi2_HTHT'
p168
(dp169
g5
I0
sg6
I0
sg7
I0
sg8
I0
sg9
I0
ssS'Suu7_chi2_WBZT'
p170
(dp171
g5
I0
sg6
I0
sg7
I0
sg8
I0
sg9
I0
ssS'Suu4_chi1p5_WBZT'
p172
(dp173
g5
I0
sg6
I0
sg7
I0
sg8
I0
sg9
I0
ssS'Suu8_chi1p5_HTZT'
p174
(dp175
g5
I0
sg6
I0
sg7
I0
sg8
I0
sg9
I0
ssS'Suu7_chi1p5_WBHT'
p176
(dp177
g5
I0
sg6
I0
sg7
I0
sg8
I0
sg9
I0
ssS'Suu4_chi1_HTHT'
p178
(dp179
g5
I0
sg6
I0
sg7
I0
sg8
I0
sg9
I0
ssS'Suu7_chi2_WBHT'
p180
(dp181
g5
I0
sg6
I0
sg7
I0
sg8
I0
sg9
I0
ssS'Suu6_chi1p5_HTHT'
p182
(dp183
g5
I0
sg6
I0
sg7
I0
sg8
I0
sg9
I0
ssS'Suu6_chi1p5_WBHT'
p184
(dp185
g5
I0
sg6
I0
sg7
I0
sg8
I0
sg9
I0
ssS'Suu7_chi2_WBWB'
p186
(dp187
g5
I0
sg6
I0
sg7
I0
sg8
I0
sg9
I0
ssS'Suu8_chi2p5_WBHT'
p188
(dp189
g5
I0
sg6
I0
sg7
I0
sg8
I0
sg9
I0
ssS'Suu7_chi1p5_HTZT'
p190
(dp191
g5
I0
sg6
I0
sg7
I0
sg8
I0
sg9
I0
ssS'Suu4_chi1_WBWB'
p192
(dp193
g5
I0
sg6
I0
sg7
I0
sg8
I0
sg9
I0
ssS'Suu5_chi2_HTZT'
p194
(dp195
g5
I0
sg6
I0
sg7
I0
sg8
I0
sg9
I0
ssS'Suu5_chi1_HTHT'
p196
(dp197
g5
I0
sg6
I0
sg7
I0
sg8
I0
sg9
I0
ssS'Suu8_chi2_WBZT'
p198
(dp199
g5
I0
sg6
I0
sg7
I0
sg8
I0
sg9
I0
ssS'Suu5_chi1p5_WBZT'
p200
(dp201
g5
I0
sg6
I0
sg7
I0
sg8
I0
sg9
I0
ssS'Suu5_chi1_ZTZT'
p202
(dp203
g5
I0
sg6
I0
sg7
I0
sg8
I0
sg9
I0
ssS'Suu7_chi1_WBHT'
p204
(dp205
g5
I0
sg6
I0
sg7
I0
sg8
I0
sg9
I0
ssS'Suu5_chi1_WBWB'
p206
(dp207
g5
I0
sg6
I0
sg7
I0
sg8
I0
sg9
I0
ssS'Suu5_chi2_WBZT'
p208
(dp209
g5
I0
sg6
I0
sg7
I0
sg8
I0
sg9
I0
ssS'Suu7_chi2p5_HTHT'
p210
(dp211
g5
I0
sg6
I0
sg7
I0
sg8
I0
sg9
I0
ssS'Suu7_chi2_ZTZT'
p212
(dp213
g5
I0
sg6
I0
sg7
I0
sg8
I0
sg9
I0
ssS'Suu6_chi1_HTZT'
p214
(dp215
g5
I0
sg6
I0
sg7
I0
sg8
I0
sg9
I0
ssS'Suu8_chi1p5_ZTZT'
p216
(dp217
g5
I0
sg6
I0
sg7
I0
sg8
I0
sg9
I0
ssS'Suu7_chi3_HTZT'
p218
(dp219
g5
I0
sg6
I0
sg7
I0
sg8
I0
sg9
I0
ssS'Suu7_chi3_ZTZT'
p220
(dp221
g5
I0
sg6
I0
sg7
I0
sg8
I0
sg9
I0
ssS'Suu6_chi2p5_WBHT'
p222
(dp223
g5
I0
sg6
I0
sg7
I0
sg8
I0
sg9
I0
ssS'Suu7_chi1p5_ZTZT'
p224
(dp225
g5
I0
sg6
I0
sg7
I0
sg8
I0
sg9
I0
ssS'Suu8_chi3_WBZT'
p226
(dp227
g5
I0
sg6
I0
sg7
I0
sg8
I0
sg9
I0
ssS'Suu6_chi1_ZTZT'
p228
(dp229
g5
I0
sg6
I0
sg7
I0
sg8
I0
sg9
I0
ssS'Suu8_chi1p5_WBWB'
p230
(dp231
g5
I0
sg6
I0
sg7
I0
sg8
I0
sg9
I0
ssS'Suu6_chi2_WBZT'
p232
(dp233
g5
I0
sg6
I0
sg7
I0
sg8
I0
sg9
I0
ssS'Suu8_chi1p5_WBHT'
p234
(dp235
g5
I0
sg6
I0
sg7
I0
sg8
I0
sg9
I0
sssS'2017'
p236
(dp237
S'Suu6_chi2_WBHT'
p238
(dp239
g5
I0
sg6
I0
sg7
I0
sg8
I0
sg9
I0
ssS'Suu8_chi2p5_WBWB'
p240
(dp241
g5
I0
sg6
I0
sg7
I0
sg8
I0
sg9
I0
ssS'Suu6_chi2_WBWB'
p242
(dp243
g5
I0
sg6
I0
sg7
I0
sg8
I0
sg9
I0
ssS'Suu4_chi1p5_WBWB'
p244
(dp245
g5
I0
sg6
I0
sg7
I0
sg8
I0
sg9
I0
ssS'Suu7_chi1_WBZT'
p246
(dp247
g5
I0
sg6
I0
sg7
I0
sg8
I0
sg9
I0
ssS'Suu8_chi2p5_HTHT'
p248
(dp249
g5
I0
sg6
I0
sg7
I0
sg8
I0
sg9
I0
ssS'Suu8_chi3_WBWB'
p250
(dp251
g5
I0
sg6
I0
sg7
I0
sg8
I0
sg9
I0
ssS'Suu6_chi1p5_WBWB'
p252
(dp253
g5
I0
sg6
I0
sg7
I0
sg8
I0
sg9
I0
ssS'Suu6_chi1_WBZT'
p254
(dp255
g5
I0
sg6
I0
sg7
I0
sg8
I0
sg9
I0
ssS'Suu7_chi3_WBHT'
p256
(dp257
g5
I0
sg6
I0
sg7
I0
sg8
I0
sg9
I0
ssS'Suu4_chi1p5_HTZT'
p258
(dp259
g5
I0
sg6
I0
sg7
I0
sg8
I0
sg9
I0
ssS'Suu8_chi1p5_WBZT'
p260
(dp261
g5
I0
sg6
I0
sg7
I0
sg8
I0
sg9
I0
ssS'Suu7_chi1_ZTZT'
p262
(dp263
g5
I0
sg6
I0
sg7
I0
sg8
I0
sg9
I0
ssS'Suu8_chi1_HTHT'
p264
(dp265
g5
I0
sg6
I0
sg7
I0
sg8
I0
sg9
I0
ssS'Suu7_chi2_HTZT'
p266
(dp267
g5
I0
sg6
I0
sg7
I0
sg8
I0
sg9
I0
ssS'Suu7_chi1p5_WBZT'
p268
(dp269
g5
I0
sg6
I0
sg7
I0
sg8
I0
sg9
I0
ssS'Suu8_chi1_WBZT'
p270
(dp271
g5
I0
sg6
I0
sg7
I0
sg8
I0
sg9
I0
ssS'Suu5_chi2_ZTZT'
p272
(dp273
g5
I0
sg6
I0
sg7
I0
sg8
I0
sg9
I0
ssS'Suu8_chi2_ZTZT'
p274
(dp275
g5
I0
sg6
I0
sg7
I0
sg8
I0
sg9
I0
ssS'Suu8_chi2p5_HTZT'
p276
(dp277
g5
I0
sg6
I0
sg7
I0
sg8
I0
sg9
I0
ssS'Suu4_chi1p5_HTHT'
p278
(dp279
g5
I0
sg6
I0
sg7
I0
sg8
I0
sg9
I0
ssS'Suu8_chi1_WBHT'
p280
(dp281
g5
I0
sg6
I0
sg7
I0
sg8
I0
sg9
I0
ssS'Suu8_chi3_WBHT'
p282
(dp283
g5
I0
sg6
I0
sg7
I0
sg8
I0
sg9
I0
ssS'Suu7_chi1_HTHT'
p284
(dp285
g5
I0
sg6
I0
sg7
I0
sg8
I0
sg9
I0
ssS'Suu7_chi2p5_WBHT'
p286
(dp287
g5
I0
sg6
I0
sg7
I0
sg8
I0
sg9
I0
ssS'Suu7_chi3_HTHT'
p288
(dp289
g5
I0
sg6
I0
sg7
I0
sg8
I0
sg9
I0
ssS'Suu4_chi1_HTZT'
p290
(dp291
g5
I0
sg6
I0
sg7
I0
sg8
I0
sg9
I0
ssS'Suu6_chi1_HTHT'
p292
(dp293
g5
I0
sg6
I0
sg7
I0
sg8
I0
sg9
I0
ssS'Suu4_chi1_ZTZT'
p294
(dp295
g5
I0
sg6
I0
sg7
I0
sg8
I0
sg9
I0
ssS'Suu5_chi1p5_HTZT'
p296
(dp297
g5
I0
sg6
I0
sg7
I0
sg8
I0
sg9
I0
ssS'Suu5_chi1p5_WBHT'
p298
(dp299
g5
I0
sg6
I0
sg7
I0
sg8
I0
sg9
I0
ssS'Suu7_chi3_WBZT'
p300
(dp301
g5
I0
sg6
I0
sg7
I0
sg8
I0
sg9
I0
ssS'Suu6_chi2_HTHT'
p302
(dp303
g5
I0
sg6
I0
sg7
I0
sg8
I0
sg9
I0
ssS'Suu5_chi1p5_ZTZT'
p304
(dp305
g5
I0
sg6
I0
sg7
I0
sg8
I0
sg9
I0
ssS'Suu6_chi1p5_ZTZT'
p306
(dp307
g5
I0
sg6
I0
sg7
I0
sg8
I0
sg9
I0
ssS'Suu4_chi1p5_ZTZT'
p308
(dp309
g5
I0
sg6
I0
sg7
I0
sg8
I0
sg9
I0
ssS'Suu8_chi2_HTZT'
p310
(dp311
g5
I0
sg6
I0
sg7
I0
sg8
I0
sg9
I0
ssS'Suu8_chi3_HTZT'
p312
(dp313
g5
I0
sg6
I0
sg7
I0
sg8
I0
sg9
I0
ssS'Suu6_chi2p5_ZTZT'
p314
(dp315
g5
I0
sg6
I0
sg7
I0
sg8
I0
sg9
I0
ssS'Suu7_chi1_HTZT'
p316
(dp317
g5
I0
sg6
I0
sg7
I0
sg8
I0
sg9
I0
ssS'Suu6_chi2p5_WBZT'
p318
(dp319
g5
I0
sg6
I0
sg7
I0
sg8
I0
sg9
I0
ssS'Suu6_chi2_HTZT'
p320
(dp321
g5
I0
sg6
I0
sg7
I0
sg8
I0
sg9
I0
ssS'Suu4_chi1p5_WBHT'
p322
(dp323
g5
I0
sg6
I0
sg7
I0
sg8
I0
sg9
I0
ssS'Suu5_chi1p5_HTHT'
p324
(dp325
g5
I0
sg6
I0
sg7
I0
sg8
I0
sg9
I0
ssS'Suu5_chi2_WBWB'
p326
(dp327
g5
I0
sg6
I0
sg7
I0
sg8
I0
sg9
I0
ssS'Suu8_chi1_HTZT'
p328
(dp329
g5
I0
sg6
I0
sg7
I0
sg8
I0
sg9
I0
ssS'Suu4_chi1_WBHT'
p330
(dp331
g5
I0
sg6
I0
sg7
I0
sg8
I0
sg9
I0
ssS'Suu7_chi2p5_WBWB'
p332
(dp333
g5
I0
sg6
I0
sg7
I0
sg8
I0
sg9
I0
ssS'Suu8_chi2_WBHT'
p334
(dp335
g5
I0
sg6
I0
sg7
I0
sg8
I0
sg9
I0
ssS'Suu7_chi2p5_ZTZT'
p336
(dp337
g5
I0
sg6
I0
sg7
I0
sg8
I0
sg9
I0
ssS'Suu5_chi1_WBZT'
p338
(dp339
g5
I0
sg6
I0
sg7
I0
sg8
I0
sg9
I0
ssS'Suu5_chi1p5_WBWB'
p340
(dp341
g5
I0
sg6
I0
sg7
I0
sg8
I0
sg9
I0
ssS'Suu8_chi1_ZTZT'
p342
(dp343
g5
I0
sg6
I0
sg7
I0
sg8
I0
sg9
I0
ssS'Suu8_chi3_HTHT'
p344
(dp345
g5
I0
sg6
I0
sg7
I0
sg8
I0
sg9
I0
ssS'Suu7_chi3_WBWB'
p346
(dp347
g5
I0
sg6
I0
sg7
I0
sg8
I0
sg9
I0
ssS'Suu8_chi3_ZTZT'
p348
(dp349
g5
I0
sg6
I0
sg7
I0
sg8
I0
sg9
I0
ssS'Suu6_chi2p5_HTZT'
p350
(dp351
g5
I0
sg6
I0
sg7
I0
sg8
I0
sg9
I0
ssS'Suu7_chi1_WBWB'
p352
(dp353
g5
I0
sg6
I0
sg7
I0
sg8
I0
sg9
I0
ssS'Suu7_chi2p5_WBZT'
p354
(dp355
g5
I0
sg6
I0
sg7
I0
sg8
I0
sg9
I0
ssS'Suu7_chi1p5_HTHT'
p356
(dp357
g5
I0
sg6
I0
sg7
I0
sg8
I0
sg9
I0
ssS'Suu5_chi1_HTZT'
p358
(dp359
g5
I0
sg6
I0
sg7
I0
sg8
I0
sg9
I0
ssS'Suu6_chi1p5_HTZT'
p360
(dp361
g5
I0
sg6
I0
sg7
I0
sg8
I0
sg9
I0
ssS'Suu8_chi2p5_WBZT'
p362
(dp363
g5
I0
sg6
I0
sg7
I0
sg8
I0
sg9
I0
ssS'Suu5_chi1_WBHT'
p364
(dp365
g5
I0
sg6
I0
sg7
I0
sg8
I0
sg9
I0
ssS'Suu7_chi1p5_WBWB'
p366
(dp367
g5
I0
sg6
I0
sg7
I0
sg8
I0
sg9
I0
ssS'Suu8_chi1p5_HTHT'
p368
(dp369
g5
I0
sg6
I0
sg7
I0
sg8
I0
sg9
I0
ssS'Suu4_chi1_WBZT'
p370
(dp371
g5
I0
sg6
I0
sg7
I0
sg8
I0
sg9
I0
ssS'Suu6_chi2p5_HTHT'
p372
(dp373
g5
I0
sg6
I0
sg7
I0
sg8
I0
sg9
I0
ssS'Suu5_chi2_HTHT'
p374
(dp375
g5
I0
sg6
I0
sg7
I0
sg8
I0
sg9
I0
ssS'Suu6_chi1p5_WBZT'
p376
(dp377
g5
I0
sg6
I0
sg7
I0
sg8
I0
sg9
I0
ssS'Suu8_chi1_WBWB'
p378
(dp379
g5
I0
sg6
I0
sg7
I0
sg8
I0
sg9
I0
ssS'Suu6_chi1_WBWB'
p380
(dp381
g5
I0
sg6
I0
sg7
I0
sg8
I0
sg9
I0
ssS'Suu8_chi2_WBWB'
p382
(dp383
g5
I0
sg6
I0
sg7
I0
sg8
I0
sg9
I0
ssS'Suu6_chi2_ZTZT'
p384
(dp385
g5
I0
sg6
I0
sg7
I0
sg8
I0
sg9
I0
ssS'Suu6_chi2p5_WBWB'
p386
(dp387
g5
I0
sg6
I0
sg7
I0
sg8
I0
sg9
I0
ssS'Suu6_chi1_WBHT'
p388
(dp389
g5
I0
sg6
I0
sg7
I0
sg8
I0
sg9
I0
ssS'Suu7_chi2p5_HTZT'
p390
(dp391
g5
I0
sg6
I0
sg7
I0
sg8
I0
sg9
I0
ssS'Suu8_chi2p5_ZTZT'
p392
(dp393
g5
I0
sg6
I0
sg7
I0
sg8
I0
sg9
I0
ssS'Suu5_chi2_WBHT'
p394
(dp395
g5
I0
sg6
I0
sg7
I0
sg8
I0
sg9
I0
ssS'Suu8_chi2_HTHT'
p396
(dp397
g5
I0
sg6
I0
sg7
I0
sg8
I0
sg9
I0
ssS'Suu7_chi2_HTHT'
p398
(dp399
g5
I0
sg6
I0
sg7
I0
sg8
I0
sg9
I0
ssS'Suu7_chi2_WBZT'
p400
(dp401
g5
I0
sg6
I0
sg7
I0
sg8
I0
sg9
I0
ssS'Suu4_chi1p5_WBZT'
p402
(dp403
g5
I0
sg6
I0
sg7
I0
sg8
I0
sg9
I0
ssS'Suu8_chi1p5_HTZT'
p404
(dp405
g5
I0
sg6
I0
sg7
I0
sg8
I0
sg9
I0
ssS'Suu7_chi1p5_WBHT'
p406
(dp407
g5
I0
sg6
I0
sg7
I0
sg8
I0
sg9
I0
ssS'Suu4_chi1_HTHT'
p408
(dp409
g5
I0
sg6
I0
sg7
I0
sg8
I0
sg9
I0
ssS'Suu7_chi2_WBHT'
p410
(dp411
g5
I0
sg6
I0
sg7
I0
sg8
I0
sg9
I0
ssS'Suu6_chi1p5_HTHT'
p412
(dp413
g5
I0
sg6
I0
sg7
I0
sg8
I0
sg9
I0
ssS'Suu6_chi1p5_WBHT'
p414
(dp415
g5
I0
sg6
I0
sg7
I0
sg8
I0
sg9
I0
ssS'Suu7_chi2_WBWB'
p416
(dp417
g5
I0
sg6
I0
sg7
I0
sg8
I0
sg9
I0
ssS'Suu8_chi2p5_WBHT'
p418
(dp419
g5
I0
sg6
I0
sg7
I0
sg8
I0
sg9
I0
ssS'Suu7_chi1p5_HTZT'
p420
(dp421
g5
I0
sg6
I0
sg7
I0
sg8
I0
sg9
I0
ssS'Suu4_chi1_WBWB'
p422
(dp423
g5
I0
sg6
I0
sg7
I0
sg8
I0
sg9
I0
ssS'Suu5_chi2_HTZT'
p424
(dp425
g5
I0
sg6
I0
sg7
I0
sg8
I0
sg9
I0
ssS'Suu5_chi1_HTHT'
p426
(dp427
g5
I0
sg6
I0
sg7
I0
sg8
I0
sg9
I0
ssS'Suu8_chi2_WBZT'
p428
(dp429
g5
I0
sg6
I0
sg7
I0
sg8
I0
sg9
I0
ssS'Suu5_chi1p5_WBZT'
p430
(dp431
g5
I0
sg6
I0
sg7
I0
sg8
I0
sg9
I0
ssS'Suu5_chi1_ZTZT'
p432
(dp433
g5
I0
sg6
I0
sg7
I0
sg8
I0
sg9
I0
ssS'Suu7_chi1_WBHT'
p434
(dp435
g5
I0
sg6
I0
sg7
I0
sg8
I0
sg9
I0
ssS'Suu5_chi1_WBWB'
p436
(dp437
g5
I0
sg6
I0
sg7
I0
sg8
I0
sg9
I0
ssS'Suu5_chi2_WBZT'
p438
(dp439
g5
I0
sg6
I0
sg7
I0
sg8
I0
sg9
I0
ssS'Suu7_chi2p5_HTHT'
p440
(dp441
g5
I0
sg6
I0
sg7
I0
sg8
I0
sg9
I0
ssS'Suu7_chi2_ZTZT'
p442
(dp443
g5
I0
sg6
I0
sg7
I0
sg8
I0
sg9
I0
ssS'Suu6_chi1_HTZT'
p444
(dp445
g5
I0
sg6
I0
sg7
I0
sg8
I0
sg9
I0
ssS'Suu8_chi1p5_ZTZT'
p446
(dp447
g5
I0
sg6
I0
sg7
I0
sg8
I0
sg9
I0
ssS'Suu7_chi3_HTZT'
p448
(dp449
g5
I0
sg6
I0
sg7
I0
sg8
I0
sg9
I0
ssS'Suu7_chi3_ZTZT'
p450
(dp451
g5
I0
sg6
I0
sg7
I0
sg8
I0
sg9
I0
ssS'Suu6_chi2p5_WBHT'
p452
(dp453
g5
I0
sg6
I0
sg7
I0
sg8
I0
sg9
I0
ssS'Suu7_chi1p5_ZTZT'
p454
(dp455
g5
I0
sg6
I0
sg7
I0
sg8
I0
sg9
I0
ssS'Suu8_chi3_WBZT'
p456
(dp457
g5
I0
sg6
I0
sg7
I0
sg8
I0
sg9
I0
ssS'Suu6_chi1_ZTZT'
p458
(dp459
g5
I0
sg6
I0
sg7
I0
sg8
I0
sg9
I0
ssS'Suu8_chi1p5_WBWB'
p460
(dp461
g5
I0
sg6
I0
sg7
I0
sg8
I0
sg9
I0
ssS'Suu6_chi2_WBZT'
p462
(dp463
g5
I0
sg6
I0
sg7
I0
sg8
I0
sg9
I0
ssS'Suu8_chi1p5_WBHT'
p464
(dp465
g5
I0
sg6
I0
sg7
I0
sg8
I0
sg9
I0
sssS'2016'
p466
(dp467
S'Suu6_chi2_WBHT'
p468
(dp469
g5
I0
sg6
I0
sg7
I0
sg8
I0
sg9
I0
ssS'Suu8_chi2p5_WBWB'
p470
(dp471
g5
I0
sg6
I0
sg7
I0
sg8
I0
sg9
I0
ssS'Suu6_chi2_WBWB'
p472
(dp473
g5
I0
sg6
I0
sg7
I0
sg8
I0
sg9
I0
ssS'Suu4_chi1p5_WBWB'
p474
(dp475
g5
I0
sg6
I0
sg7
I0
sg8
I0
sg9
I0
ssS'Suu7_chi1_WBZT'
p476
(dp477
g5
I0
sg6
I0
sg7
I0
sg8
I0
sg9
I0
ssS'Suu8_chi2p5_HTHT'
p478
(dp479
g5
I0
sg6
I0
sg7
I0
sg8
I0
sg9
I0
ssS'Suu8_chi3_WBWB'
p480
(dp481
g5
I0
sg6
I0
sg7
I0
sg8
I0
sg9
I0
ssS'Suu6_chi1p5_WBWB'
p482
(dp483
g5
I0
sg6
I0
sg7
I0
sg8
I0
sg9
I0
ssS'Suu6_chi1_WBZT'
p484
(dp485
g5
I0
sg6
I0
sg7
I0
sg8
I0
sg9
I0
ssS'Suu7_chi3_WBHT'
p486
(dp487
g5
I0
sg6
I0
sg7
I0
sg8
I0
sg9
I0
ssS'Suu4_chi1p5_HTZT'
p488
(dp489
g5
I0
sg6
I0
sg7
I0
sg8
I0
sg9
I0
ssS'Suu8_chi1p5_WBZT'
p490
(dp491
g5
I0
sg6
I0
sg7
I0
sg8
I0
sg9
I0
ssS'Suu7_chi1_ZTZT'
p492
(dp493
g5
I0
sg6
I0
sg7
I0
sg8
I0
sg9
I0
ssS'Suu8_chi1_HTHT'
p494
(dp495
g5
I0
sg6
I0
sg7
I0
sg8
I0
sg9
I0
ssS'Suu7_chi2_HTZT'
p496
(dp497
g5
I0
sg6
I0
sg7
I0
sg8
I0
sg9
I0
ssS'Suu7_chi1p5_WBZT'
p498
(dp499
g5
I0
sg6
I0
sg7
I0
sg8
I0
sg9
I0
ssS'Suu8_chi1_WBZT'
p500
(dp501
g5
I0
sg6
I0
sg7
I0
sg8
I0
sg9
I0
ssS'Suu5_chi2_ZTZT'
p502
(dp503
g5
I0
sg6
I0
sg7
I0
sg8
I0
sg9
I0
ssS'Suu8_chi2_ZTZT'
p504
(dp505
g5
I0
sg6
I0
sg7
I0
sg8
I0
sg9
I0
ssS'Suu8_chi2p5_HTZT'
p506
(dp507
g5
I0
sg6
I0
sg7
I0
sg8
I0
sg9
I0
ssS'Suu4_chi1p5_HTHT'
p508
(dp509
g5
I0
sg6
I0
sg7
I0
sg8
I0
sg9
I0
ssS'Suu8_chi1_WBHT'
p510
(dp511
g5
I0
sg6
I0
sg7
I0
sg8
I0
sg9
I0
ssS'Suu8_chi3_WBHT'
p512
(dp513
g5
I0
sg6
I0
sg7
I0
sg8
I0
sg9
I0
ssS'Suu7_chi1_HTHT'
p514
(dp515
g5
I0
sg6
I0
sg7
I0
sg8
I0
sg9
I0
ssS'Suu7_chi2p5_WBHT'
p516
(dp517
g5
I0
sg6
I0
sg7
I0
sg8
I0
sg9
I0
ssS'Suu7_chi3_HTHT'
p518
(dp519
g5
I0
sg6
I0
sg7
I0
sg8
I0
sg9
I0
ssS'Suu4_chi1_HTZT'
p520
(dp521
g5
I0
sg6
I0
sg7
I0
sg8
I0
sg9
I0
ssS'Suu6_chi1_HTHT'
p522
(dp523
g5
I0
sg6
I0
sg7
I0
sg8
I0
sg9
I0
ssS'Suu4_chi1_ZTZT'
p524
(dp525
g5
I0
sg6
I0
sg7
I0
sg8
I0
sg9
I0
ssS'Suu5_chi1p5_HTZT'
p526
(dp527
g5
I0
sg6
I0
sg7
I0
sg8
I0
sg9
I0
ssS'Suu5_chi1p5_WBHT'
p528
(dp529
g5
I0
sg6
I0
sg7
I0
sg8
I0
sg9
I0
ssS'Suu7_chi3_WBZT'
p530
(dp531
g5
I0
sg6
I0
sg7
I0
sg8
I0
sg9
I0
ssS'Suu6_chi2_HTHT'
p532
(dp533
g5
I0
sg6
I0
sg7
I0
sg8
I0
sg9
I0
ssS'Suu5_chi1p5_ZTZT'
p534
(dp535
g5
I0
sg6
I0
sg7
I0
sg8
I0
sg9
I0
ssS'Suu6_chi1p5_ZTZT'
p536
(dp537
g5
I0
sg6
I0
sg7
I0
sg8
I0
sg9
I0
ssS'Suu4_chi1p5_ZTZT'
p538
(dp539
g5
I0
sg6
I0
sg7
I0
sg8
I0
sg9
I0
ssS'Suu8_chi2_HTZT'
p540
(dp541
g5
I0
sg6
I0
sg7
I0
sg8
I0
sg9
I0
ssS'Suu8_chi3_HTZT'
p542
(dp543
g5
I0
sg6
I0
sg7
I0
sg8
I0
sg9
I0
ssS'Suu6_chi2p5_ZTZT'
p544
(dp545
g5
I0
sg6
I0
sg7
I0
sg8
I0
sg9
I0
ssS'Suu7_chi1_HTZT'
p546
(dp547
g5
I0
sg6
I0
sg7
I0
sg8
I0
sg9
I0
ssS'Suu6_chi2p5_WBZT'
p548
(dp549
g5
I0
sg6
I0
sg7
I0
sg8
I0
sg9
I0
ssS'Suu6_chi2_HTZT'
p550
(dp551
g5
I0
sg6
I0
sg7
I0
sg8
I0
sg9
I0
ssS'Suu4_chi1p5_WBHT'
p552
(dp553
g5
I0
sg6
I0
sg7
I0
sg8
I0
sg9
I0
ssS'Suu5_chi1p5_HTHT'
p554
(dp555
g5
I0
sg6
I0
sg7
I0
sg8
I0
sg9
I0
ssS'Suu5_chi2_WBWB'
p556
(dp557
g5
I0
sg6
I0
sg7
I0
sg8
I0
sg9
I0
ssS'Suu8_chi1_HTZT'
p558
(dp559
g5
I0
sg6
I0
sg7
I0
sg8
I0
sg9
I0
ssS'Suu4_chi1_WBHT'
p560
(dp561
g5
I0
sg6
I0
sg7
I0
sg8
I0
sg9
I0
ssS'Suu7_chi2p5_WBWB'
p562
(dp563
g5
I0
sg6
I0
sg7
I0
sg8
I0
sg9
I0
ssS'Suu8_chi2_WBHT'
p564
(dp565
g5
I0
sg6
I0
sg7
I0
sg8
I0
sg9
I0
ssS'Suu7_chi2p5_ZTZT'
p566
(dp567
g5
I0
sg6
I0
sg7
I0
sg8
I0
sg9
I0
ssS'Suu5_chi1_WBZT'
p568
(dp569
g5
I0
sg6
I0
sg7
I0
sg8
I0
sg9
I0
ssS'Suu5_chi1p5_WBWB'
p570
(dp571
g5
I0
sg6
I0
sg7
I0
sg8
I0
sg9
I0
ssS'Suu8_chi1_ZTZT'
p572
(dp573
g5
I0
sg6
I0
sg7
I0
sg8
I0
sg9
I0
ssS'Suu8_chi3_HTHT'
p574
(dp575
g5
I0
sg6
I0
sg7
I0
sg8
I0
sg9
I0
ssS'Suu7_chi3_WBWB'
p576
(dp577
g5
I0
sg6
I0
sg7
I0
sg8
I0
sg9
I0
ssS'Suu8_chi3_ZTZT'
p578
(dp579
g5
I0
sg6
I0
sg7
I0
sg8
I0
sg9
I0
ssS'Suu6_chi2p5_HTZT'
p580
(dp581
g5
I0
sg6
I0
sg7
I0
sg8
I0
sg9
I0
ssS'Suu7_chi1_WBWB'
p582
(dp583
g5
I0
sg6
I0
sg7
I0
sg8
I0
sg9
I0
ssS'Suu7_chi2p5_WBZT'
p584
(dp585
g5
I0
sg6
I0
sg7
I0
sg8
I0
sg9
I0
ssS'Suu7_chi1p5_HTHT'
p586
(dp587
g5
I0
sg6
I0
sg7
I0
sg8
I0
sg9
I0
ssS'Suu5_chi1_HTZT'
p588
(dp589
g5
I0
sg6
I0
sg7
I0
sg8
I0
sg9
I0
ssS'Suu6_chi1p5_HTZT'
p590
(dp591
g5
I0
sg6
I0
sg7
I0
sg8
I0
sg9
I0
ssS'Suu8_chi2p5_WBZT'
p592
(dp593
g5
I0
sg6
I0
sg7
I0
sg8
I0
sg9
I0
ssS'Suu5_chi1_WBHT'
p594
(dp595
g5
I0
sg6
I0
sg7
I0
sg8
I0
sg9
I0
ssS'Suu7_chi1p5_WBWB'
p596
(dp597
g5
I0
sg6
I0
sg7
I0
sg8
I0
sg9
I0
ssS'Suu8_chi1p5_HTHT'
p598
(dp599
g5
I0
sg6
I0
sg7
I0
sg8
I0
sg9
I0
ssS'Suu4_chi1_WBZT'
p600
(dp601
g5
I0
sg6
I0
sg7
I0
sg8
I0
sg9
I0
ssS'Suu6_chi2p5_HTHT'
p602
(dp603
g5
I0
sg6
I0
sg7
I0
sg8
I0
sg9
I0
ssS'Suu5_chi2_HTHT'
p604
(dp605
g5
I0
sg6
I0
sg7
I0
sg8
I0
sg9
I0
ssS'Suu6_chi1p5_WBZT'
p606
(dp607
g5
I0
sg6
I0
sg7
I0
sg8
I0
sg9
I0
ssS'Suu8_chi1_WBWB'
p608
(dp609
g5
I0
sg6
I0
sg7
I0
sg8
I0
sg9
I0
ssS'Suu6_chi1_WBWB'
p610
(dp611
g5
I0
sg6
I0
sg7
I0
sg8
I0
sg9
I0
ssS'Suu8_chi2_WBWB'
p612
(dp613
g5
I0
sg6
I0
sg7
I0
sg8
I0
sg9
I0
ssS'Suu6_chi2_ZTZT'
p614
(dp615
g5
I0
sg6
I0
sg7
I0
sg8
I0
sg9
I0
ssS'Suu6_chi2p5_WBWB'
p616
(dp617
g5
I0
sg6
I0
sg7
I0
sg8
I0
sg9
I0
ssS'Suu6_chi1_WBHT'
p618
(dp619
g5
I0
sg6
I0
sg7
I0
sg8
I0
sg9
I0
ssS'Suu7_chi2p5_HTZT'
p620
(dp621
g5
I0
sg6
I0
sg7
I0
sg8
I0
sg9
I0
ssS'Suu8_chi2p5_ZTZT'
p622
(dp623
g5
I0
sg6
I0
sg7
I0
sg8
I0
sg9
I0
ssS'Suu5_chi2_WBHT'
p624
(dp625
g5
I0
sg6
I0
sg7
I0
sg8
I0
sg9
I0
ssS'Suu8_chi2_HTHT'
p626
(dp627
g5
I0
sg6
I0
sg7
I0
sg8
I0
sg9
I0
ssS'Suu7_chi2_HTHT'
p628
(dp629
g5
I0
sg6
I0
sg7
I0
sg8
I0
sg9
I0
ssS'Suu7_chi2_WBZT'
p630
(dp631
g5
I0
sg6
I0
sg7
I0
sg8
I0
sg9
I0
ssS'Suu4_chi1p5_WBZT'
p632
(dp633
g5
I0
sg6
I0
sg7
I0
sg8
I0
sg9
I0
ssS'Suu8_chi1p5_HTZT'
p634
(dp635
g5
I0
sg6
I0
sg7
I0
sg8
I0
sg9
I0
ssS'Suu7_chi1p5_WBHT'
p636
(dp637
g5
I0
sg6
I0
sg7
I0
sg8
I0
sg9
I0
ssS'Suu4_chi1_HTHT'
p638
(dp639
g5
I0
sg6
I0
sg7
I0
sg8
I0
sg9
I0
ssS'Suu7_chi2_WBHT'
p640
(dp641
g5
I0
sg6
I0
sg7
I0
sg8
I0
sg9
I0
ssS'Suu6_chi1p5_HTHT'
p642
(dp643
g5
I0
sg6
I0
sg7
I0
sg8
I0
sg9
I0
ssS'Suu6_chi1p5_WBHT'
p644
(dp645
g5
I0
sg6
I0
sg7
I0
sg8
I0
sg9
I0
ssS'Suu7_chi2_WBWB'
p646
(dp647
g5
I0
sg6
I0
sg7
I0
sg8
I0
sg9
I0
ssS'Suu8_chi2p5_WBHT'
p648
(dp649
g5
I0
sg6
I0
sg7
I0
sg8
I0
sg9
I0
ssS'Suu7_chi1p5_HTZT'
p650
(dp651
g5
I0
sg6
I0
sg7
I0
sg8
I0
sg9
I0
ssS'Suu4_chi1_WBWB'
p652
(dp653
g5
I0
sg6
I0
sg7
I0
sg8
I0
sg9
I0
ssS'Suu5_chi2_HTZT'
p654
(dp655
g5
I0
sg6
I0
sg7
I0
sg8
I0
sg9
I0
ssS'Suu5_chi1_HTHT'
p656
(dp657
g5
I0
sg6
I0
sg7
I0
sg8
I0
sg9
I0
ssS'Suu8_chi2_WBZT'
p658
(dp659
g5
I0
sg6
I0
sg7
I0
sg8
I0
sg9
I0
ssS'Suu5_chi1p5_WBZT'
p660
(dp661
g5
I0
sg6
I0
sg7
I0
sg8
I0
sg9
I0
ssS'Suu5_chi1_ZTZT'
p662
(dp663
g5
I0
sg6
I0
sg7
I0
sg8
I0
sg9
I0
ssS'Suu7_chi1_WBHT'
p664
(dp665
g5
I0
sg6
I0
sg7
I0
sg8
I0
sg9
I0
ssS'Suu5_chi1_WBWB'
p666
(dp667
g5
I0
sg6
I0
sg7
I0
sg8
I0
sg9
I0
ssS'Suu5_chi2_WBZT'
p668
(dp669
g5
I0
sg6
I0
sg7
I0
sg8
I0
sg9
I0
ssS'Suu7_chi2p5_HTHT'
p670
(dp671
g5
I0
sg6
I0
sg7
I0
sg8
I0
sg9
I0
ssS'Suu7_chi2_ZTZT'
p672
(dp673
g5
I0
sg6
I0
sg7
I0
sg8
I0
sg9
I0
ssS'Suu6_chi1_HTZT'
p674
(dp675
g5
I0
sg6
I0
sg7
I0
sg8
I0
sg9
I0
ssS'Suu8_chi1p5_ZTZT'
p676
(dp677
g5
I0
sg6
I0
sg7
I0
sg8
I0
sg9
I0
ssS'Suu7_chi3_HTZT'
p678
(dp679
g5
I0
sg6
I0
sg7
I0
sg8
I0
sg9
I0
ssS'Suu7_chi3_ZTZT'
p680
(dp681
g5
I0
sg6
I0
sg7
I0
sg8
I0
sg9
I0
ssS'Suu6_chi2p5_WBHT'
p682
(dp683
g5
I0
sg6
I0
sg7
I0
sg8
I0
sg9
I0
ssS'Suu7_chi1p5_ZTZT'
p684
(dp685
g5
I0
sg6
I0
sg7
I0
sg8
I0
sg9
I0
ssS'Suu8_chi3_WBZT'
p686
(dp687
g5
I0
sg6
I0
sg7
I0
sg8
I0
sg9
I0
ssS'Suu6_chi1_ZTZT'
p688
(dp689
g5
I0
sg6
I0
sg7
I0
sg8
I0
sg9
I0
ssS'Suu8_chi1p5_WBWB'
p690
(dp691
g5
I0
sg6
I0
sg7
I0
sg8
I0
sg9
I0
ssS'Suu6_chi2_WBZT'
p692
(dp693
g5
I0
sg6
I0
sg7
I0
sg8
I0
sg9
I0
ssS'Suu8_chi1p5_WBHT'
p694
(dp695
g5
I0
sg6
I0
sg7
I0
sg8
I0
sg9
I0
sssS'2018'
p696
(dp697
S'Suu6_chi2_WBHT'
p698
(dp699
g5
I0
sg6
I0
sg7
I0
sg8
I0
sg9
I0
ssS'Suu8_chi2p5_WBWB'
p700
(dp701
g5
I0
sg6
I0
sg7
I0
sg8
I0
sg9
I0
ssS'Suu6_chi2_WBWB'
p702
(dp703
g5
I0
sg6
I0
sg7
I0
sg8
I0
sg9
I0
ssS'Suu4_chi1p5_WBWB'
p704
(dp705
g5
I0
sg6
I0
sg7
I0
sg8
I0
sg9
I0
ssS'Suu7_chi1_WBZT'
p706
(dp707
g5
I0
sg6
I0
sg7
I0
sg8
I0
sg9
I0
ssS'Suu8_chi2p5_HTHT'
p708
(dp709
g5
I0
sg6
I0
sg7
I0
sg8
I0
sg9
I0
ssS'Suu8_chi3_WBWB'
p710
(dp711
g5
I0
sg6
I0
sg7
I0
sg8
I0
sg9
I0
ssS'Suu6_chi1p5_WBWB'
p712
(dp713
g5
I0
sg6
I0
sg7
I0
sg8
I0
sg9
I0
ssS'Suu6_chi1_WBZT'
p714
(dp715
g5
I0
sg6
I0
sg7
I0
sg8
I0
sg9
I0
ssS'Suu7_chi3_WBHT'
p716
(dp717
g5
I0
sg6
I0
sg7
I0
sg8
I0
sg9
I0
ssS'Suu4_chi1p5_HTZT'
p718
(dp719
g5
I0
sg6
I0
sg7
I0
sg8
I0
sg9
I0
ssS'Suu8_chi1p5_WBZT'
p720
(dp721
g5
I0
sg6
I0
sg7
I0
sg8
I0
sg9
I0
ssS'Suu7_chi1_ZTZT'
p722
(dp723
g5
I0
sg6
I0
sg7
I0
sg8
I0
sg9
I0
ssS'Suu8_chi1_HTHT'
p724
(dp725
g5
I0
sg6
I0
sg7
I0
sg8
I0
sg9
I0
ssS'Suu7_chi2_HTZT'
p726
(dp727
g5
I0
sg6
I0
sg7
I0
sg8
I0
sg9
I0
ssS'Suu7_chi1p5_WBZT'
p728
(dp729
g5
I0
sg6
I0
sg7
I0
sg8
I0
sg9
I0
ssS'Suu8_chi1_WBZT'
p730
(dp731
g5
I0
sg6
I0
sg7
I0
sg8
I0
sg9
I0
ssS'Suu5_chi2_ZTZT'
p732
(dp733
g5
I0
sg6
I0
sg7
I0
sg8
I0
sg9
I0
ssS'Suu8_chi2_ZTZT'
p734
(dp735
g5
I0
sg6
I0
sg7
I0
sg8
I0
sg9
I0
ssS'Suu8_chi2p5_HTZT'
p736
(dp737
g5
I0
sg6
I0
sg7
I0
sg8
I0
sg9
I0
ssS'Suu4_chi1p5_HTHT'
p738
(dp739
g5
I0
sg6
I0
sg7
I0
sg8
I0
sg9
I0
ssS'Suu8_chi1_WBHT'
p740
(dp741
g5
I0
sg6
I0
sg7
I0
sg8
I0
sg9
I0
ssS'Suu8_chi3_WBHT'
p742
(dp743
g5
I0
sg6
I0
sg7
I0
sg8
I0
sg9
I0
ssS'Suu7_chi1_HTHT'
p744
(dp745
g5
I0
sg6
I0
sg7
I0
sg8
I0
sg9
I0
ssS'Suu7_chi2p5_WBHT'
p746
(dp747
g5
I0
sg6
I0
sg7
I0
sg8
I0
sg9
I0
ssS'Suu7_chi3_HTHT'
p748
(dp749
g5
I0
sg6
I0
sg7
I0
sg8
I0
sg9
I0
ssS'Suu4_chi1_HTZT'
p750
(dp751
g5
I0
sg6
I0
sg7
I0
sg8
I0
sg9
I0
ssS'Suu6_chi1_HTHT'
p752
(dp753
g5
I0
sg6
I0
sg7
I0
sg8
I0
sg9
I0
ssS'Suu4_chi1_ZTZT'
p754
(dp755
g5
I0
sg6
I0
sg7
I0
sg8
I0
sg9
I0
ssS'Suu5_chi1p5_HTZT'
p756
(dp757
g5
I0
sg6
I0
sg7
I0
sg8
I0
sg9
I0
ssS'Suu5_chi1p5_WBHT'
p758
(dp759
g5
I0
sg6
I0
sg7
I0
sg8
I0
sg9
I0
ssS'Suu7_chi3_WBZT'
p760
(dp761
g5
I0
sg6
I0
sg7
I0
sg8
I0
sg9
I0
ssS'Suu6_chi2_HTHT'
p762
(dp763
g5
I0
sg6
I0
sg7
I0
sg8
I0
sg9
I0
ssS'Suu5_chi1p5_ZTZT'
p764
(dp765
g5
I0
sg6
I0
sg7
I0
sg8
I0
sg9
I0
ssS'Suu6_chi1p5_ZTZT'
p766
(dp767
g5
I0
sg6
I0
sg7
I0
sg8
I0
sg9
I0
ssS'Suu4_chi1p5_ZTZT'
p768
(dp769
g5
I0
sg6
I0
sg7
I0
sg8
I0
sg9
I0
ssS'Suu8_chi2_HTZT'
p770
(dp771
g5
I0
sg6
I0
sg7
I0
sg8
I0
sg9
I0
ssS'Suu8_chi3_HTZT'
p772
(dp773
g5
I0
sg6
I0
sg7
I0
sg8
I0
sg9
I0
ssS'Suu6_chi2p5_ZTZT'
p774
(dp775
g5
I0
sg6
I0
sg7
I0
sg8
I0
sg9
I0
ssS'Suu7_chi1_HTZT'
p776
(dp777
g5
I0
sg6
I0
sg7
I0
sg8
I0
sg9
I0
ssS'Suu6_chi2p5_WBZT'
p778
(dp779
g5
I0
sg6
I0
sg7
I0
sg8
I0
sg9
I0
ssS'Suu6_chi2_HTZT'
p780
(dp781
g5
I0
sg6
I0
sg7
I0
sg8
I0
sg9
I0
ssS'Suu4_chi1p5_WBHT'
p782
(dp783
g5
I0
sg6
I0
sg7
I0
sg8
I0
sg9
I0
ssS'Suu5_chi1p5_HTHT'
p784
(dp785
g5
I0
sg6
I0
sg7
I0
sg8
I0
sg9
I0
ssS'Suu5_chi2_WBWB'
p786
(dp787
g5
I0
sg6
I0
sg7
I0
sg8
I0
sg9
I0
ssS'Suu8_chi1_HTZT'
p788
(dp789
g5
I0
sg6
I0
sg7
I0
sg8
I0
sg9
I0
ssS'Suu4_chi1_WBHT'
p790
(dp791
g5
I0
sg6
I0
sg7
I0
sg8
I0
sg9
I0
ssS'Suu7_chi2p5_WBWB'
p792
(dp793
g5
I0
sg6
I0
sg7
I0
sg8
I0
sg9
I0
ssS'Suu8_chi2_WBHT'
p794
(dp795
g5
I0
sg6
I0
sg7
I0
sg8
I0
sg9
I0
ssS'Suu7_chi2p5_ZTZT'
p796
(dp797
g5
I0
sg6
I0
sg7
I0
sg8
I0
sg9
I0
ssS'Suu5_chi1_WBZT'
p798
(dp799
g5
I0
sg6
I0
sg7
I0
sg8
I0
sg9
I0
ssS'Suu5_chi1p5_WBWB'
p800
(dp801
g5
I0
sg6
I0
sg7
I0
sg8
I0
sg9
I0
ssS'Suu8_chi1_ZTZT'
p802
(dp803
g5
I0
sg6
I0
sg7
I0
sg8
I0
sg9
I0
ssS'Suu8_chi3_HTHT'
p804
(dp805
g5
I0
sg6
I0
sg7
I0
sg8
I0
sg9
I0
ssS'Suu7_chi3_WBWB'
p806
(dp807
g5
I0
sg6
I0
sg7
I0
sg8
I0
sg9
I0
ssS'Suu8_chi3_ZTZT'
p808
(dp809
g5
I0
sg6
I0
sg7
I0
sg8
I0
sg9
I0
ssS'Suu6_chi2p5_HTZT'
p810
(dp811
g5
I0
sg6
I0
sg7
I0
sg8
I0
sg9
I0
ssS'Suu7_chi1_WBWB'
p812
(dp813
g5
I0
sg6
I0
sg7
I0
sg8
I0
sg9
I0
ssS'Suu7_chi2p5_WBZT'
p814
(dp815
g5
I0
sg6
I0
sg7
I0
sg8
I0
sg9
I0
ssS'Suu7_chi1p5_HTHT'
p816
(dp817
g5
I0
sg6
I0
sg7
I0
sg8
I0
sg9
I0
ssS'Suu5_chi1_HTZT'
p818
(dp819
g5
I0
sg6
I0
sg7
I0
sg8
I0
sg9
I0
ssS'Suu6_chi1p5_HTZT'
p820
(dp821
g5
I0
sg6
I0
sg7
I0
sg8
I0
sg9
I0
ssS'Suu8_chi2p5_WBZT'
p822
(dp823
g5
I0
sg6
I0
sg7
I0
sg8
I0
sg9
I0
ssS'Suu5_chi1_WBHT'
p824
(dp825
g5
I0
sg6
I0
sg7
I0
sg8
I0
sg9
I0
ssS'Suu7_chi1p5_WBWB'
p826
(dp827
g5
I0
sg6
I0
sg7
I0
sg8
I0
sg9
I0
ssS'Suu8_chi1p5_HTHT'
p828
(dp829
g5
I0
sg6
I0
sg7
I0
sg8
I0
sg9
I0
ssS'Suu4_chi1_WBZT'
p830
(dp831
g5
I0
sg6
I0
sg7
I0
sg8
I0
sg9
I0
ssS'Suu6_chi2p5_HTHT'
p832
(dp833
g5
I0
sg6
I0
sg7
I0
sg8
I0
sg9
I0
ssS'Suu5_chi2_HTHT'
p834
(dp835
g5
I0
sg6
I0
sg7
I0
sg8
I0
sg9
I0
ssS'Suu6_chi1p5_WBZT'
p836
(dp837
g5
I0
sg6
I0
sg7
I0
sg8
I0
sg9
I0
ssS'Suu8_chi1_WBWB'
p838
(dp839
g5
I0
sg6
I0
sg7
I0
sg8
I0
sg9
I0
ssS'Suu6_chi1_WBWB'
p840
(dp841
g5
I0
sg6
I0
sg7
I0
sg8
I0
sg9
I0
ssS'Suu8_chi2_WBWB'
p842
(dp843
g5
I0
sg6
I0
sg7
I0
sg8
I0
sg9
I0
ssS'Suu6_chi2_ZTZT'
p844
(dp845
g5
I0
sg6
I0
sg7
I0
sg8
I0
sg9
I0
ssS'Suu6_chi2p5_WBWB'
p846
(dp847
g5
I0
sg6
I0
sg7
I0
sg8
I0
sg9
I0
ssS'Suu6_chi1_WBHT'
p848
(dp849
g5
I0
sg6
I0
sg7
I0
sg8
I0
sg9
I0
ssS'Suu7_chi2p5_HTZT'
p850
(dp851
g5
I0
sg6
I0
sg7
I0
sg8
I0
sg9
I0
ssS'Suu8_chi2p5_ZTZT'
p852
(dp853
g5
I0
sg6
I0
sg7
I0
sg8
I0
sg9
I0
ssS'Suu5_chi2_WBHT'
p854
(dp855
g5
I0
sg6
I0
sg7
I0
sg8
I0
sg9
I0
ssS'Suu8_chi2_HTHT'
p856
(dp857
g5
I0
sg6
I0
sg7
I0
sg8
I0
sg9
I0
ssS'Suu7_chi2_HTHT'
p858
(dp859
g5
I0
sg6
I0
sg7
I0
sg8
I0
sg9
I0
ssS'Suu7_chi2_WBZT'
p860
(dp861
g5
I0
sg6
I0
sg7
I0
sg8
I0
sg9
I0
ssS'Suu4_chi1p5_WBZT'
p862
(dp863
g5
I0
sg6
I0
sg7
I0
sg8
I0
sg9
I0
ssS'Suu8_chi1p5_HTZT'
p864
(dp865
g5
I0
sg6
I0
sg7
I0
sg8
I0
sg9
I0
ssS'Suu7_chi1p5_WBHT'
p866
(dp867
g5
I0
sg6
I0
sg7
I0
sg8
I0
sg9
I0
ssS'Suu4_chi1_HTHT'
p868
(dp869
g5
I0
sg6
I0
sg7
I0
sg8
I0
sg9
I0
ssS'Suu7_chi2_WBHT'
p870
(dp871
g5
I0
sg6
I0
sg7
I0
sg8
I0
sg9
I0
ssS'Suu6_chi1p5_HTHT'
p872
(dp873
g5
I0
sg6
I0
sg7
I0
sg8
I0
sg9
I0
ssS'Suu6_chi1p5_WBHT'
p874
(dp875
g5
I0
sg6
I0
sg7
I0
sg8
I0
sg9
I0
ssS'Suu7_chi2_WBWB'
p876
(dp877
g5
I0
sg6
I0
sg7
I0
sg8
I0
sg9
I0
ssS'Suu8_chi2p5_WBHT'
p878
(dp879
g5
I0
sg6
I0
sg7
I0
sg8
I0
sg9
I0
ssS'Suu7_chi1p5_HTZT'
p880
(dp881
g5
I0
sg6
I0
sg7
I0
sg8
I0
sg9
I0
ssS'Suu4_chi1_WBWB'
p882
(dp883
g5
I0
sg6
I0
sg7
I0
sg8
I0
sg9
I0
ssS'Suu5_chi2_HTZT'
p884
(dp885
g5
I0
sg6
I0
sg7
I0
sg8
I0
sg9
I0
ssS'Suu5_chi1_HTHT'
p886
(dp887
g5
I0
sg6
I0
sg7
I0
sg8
I0
sg9
I0
ssS'Suu8_chi2_WBZT'
p888
(dp889
g5
I0
sg6
I0
sg7
I0
sg8
I0
sg9
I0
ssS'Suu5_chi1p5_WBZT'
p890
(dp891
g5
I0
sg6
I0
sg7
I0
sg8
I0
sg9
I0
ssS'Suu5_chi1_ZTZT'
p892
(dp893
g5
I0
sg6
I0
sg7
I0
sg8
I0
sg9
I0
ssS'Suu7_chi1_WBHT'
p894
(dp895
g5
I0
sg6
I0
sg7
I0
sg8
I0
sg9
I0
ssS'Suu5_chi1_WBWB'
p896
(dp897
g5
I0
sg6
I0
sg7
I0
sg8
I0
sg9
I0
ssS'Suu5_chi2_WBZT'
p898
(dp899
g5
I0
sg6
I0
sg7
I0
sg8
I0
sg9
I0
ssS'Suu7_chi2p5_HTHT'
p900
(dp901
g5
I0
sg6
I0
sg7
I0
sg8
I0
sg9
I0
ssS'Suu7_chi2_ZTZT'
p902
(dp903
g5
I0
sg6
I0
sg7
I0
sg8
I0
sg9
I0
ssS'Suu6_chi1_HTZT'
p904
(dp905
g5
I0
sg6
I0
sg7
I0
sg8
I0
sg9
I0
ssS'Suu8_chi1p5_ZTZT'
p906
(dp907
g5
I0
sg6
I0
sg7
I0
sg8
I0
sg9
I0
ssS'Suu7_chi3_HTZT'
p908
(dp909
g5
I0
sg6
I0
sg7
I0
sg8
I0
sg9
I0
ssS'Suu7_chi3_ZTZT'
p910
(dp911
g5
I0
sg6
I0
sg7
I0
sg8
I0
sg9
I0
ssS'Suu6_chi2p5_WBHT'
p912
(dp913
g5
I0
sg6
I0
sg7
I0
sg8
I0
sg9
I0
ssS'Suu7_chi1p5_ZTZT'
p914
(dp915
g5
I0
sg6
I0
sg7
I0
sg8
I0
sg9
I0
ssS'Suu8_chi3_WBZT'
p916
(dp917
g5
I0
sg6
I0
sg7
I0
sg8
I0
sg9
I0
ssS'Suu6_chi1_ZTZT'
p918
(dp919
g5
I0
sg6
I0
sg7
I0
sg8
I0
sg9
I0
ssS'Suu8_chi1p5_WBWB'
p920
(dp921
g5
I0
sg6
I0
sg7
I0
sg8
I0
sg9
I0
ssS'Suu6_chi2_WBZT'
p922
(dp923
g5
I0
sg6
I0
sg7
I0
sg8
I0
sg9
I0
ssS'Suu8_chi1p5_WBHT'
p924
(dp925
g5
I0
sg6
I0
sg7
I0
sg8
I0
sg9
I0
sss.