(dp0
S'2015'
p1
(dp2
S'Suu6_chi2_WBHT'
p3
S'/SuuToChiChiToWBHTToJets_MSuu-6000_MChi-2000_TuneCP5_13TeV-madgraph-pythia8/RunIISummer20UL16MiniAODAPVv2-106X_mcRun2_asymptotic_preVFP_v11-v1/MINIAODSIM\n'
p4
sS'Suu8_chi2p5_WBWB'
p5
S'/SuuToChiChiToWBWBToJets_MSuu-8000_MChi-2500_TuneCP5_13TeV-madgraph-pythia8/RunIISummer20UL16MiniAODAPVv2-106X_mcRun2_asymptotic_preVFP_v11-v1/MINIAODSIM\n'
p6
sS'Suu6_chi2_WBWB'
p7
S'/SuuToChiChiToWBWBToJets_MSuu-6000_MChi-2000_TuneCP5_13TeV-madgraph-pythia8/RunIISummer20UL16MiniAODAPVv2-106X_mcRun2_asymptotic_preVFP_v11-v2/MINIAODSIM\n'
p8
sS'Suu4_chi1p5_WBWB'
p9
S'/SuuToChiChiToWBWBToJets_MSuu-4000_MChi-1500_TuneCP5_13TeV-madgraph-pythia8/RunIISummer20UL16MiniAODAPVv2-106X_mcRun2_asymptotic_preVFP_v11-v1/MINIAODSIM\n'
p10
sS'Suu7_chi1_WBZT'
p11
S'/SuuToChiChiToWBZTToJets_MSuu-7000_MChi-1000_TuneCP5_13TeV-madgraph-pythia8/RunIISummer20UL16MiniAODAPVv2-106X_mcRun2_asymptotic_preVFP_v11-v1/MINIAODSIM\n'
p12
sS'Suu8_chi2p5_HTHT'
p13
S'/SuuToChiChiToHTHTToJets_MSuu-8000_MChi-2500_TuneCP5_13TeV-madgraph-pythia8/RunIISummer20UL16MiniAODAPVv2-106X_mcRun2_asymptotic_preVFP_v11-v3/MINIAODSIM\n'
p14
sS'Suu8_chi3_WBWB'
p15
S'/SuuToChiChiToWBWBToJets_MSuu-8000_MChi-3000_TuneCP5_13TeV-madgraph-pythia8/RunIISummer20UL16MiniAODAPVv2-106X_mcRun2_asymptotic_preVFP_v11-v2/MINIAODSIM\n'
p16
sS'Suu6_chi1p5_WBWB'
p17
S'/SuuToChiChiToWBWBToJets_MSuu-6000_MChi-1500_TuneCP5_13TeV-madgraph-pythia8/RunIISummer20UL16MiniAODAPVv2-106X_mcRun2_asymptotic_preVFP_v11-v1/MINIAODSIM\n'
p18
sS'Suu6_chi1_WBZT'
p19
S'/SuuToChiChiToWBZTToJets_MSuu-6000_MChi-1000_TuneCP5_13TeV-madgraph-pythia8/RunIISummer20UL16MiniAODAPVv2-106X_mcRun2_asymptotic_preVFP_v11-v1/MINIAODSIM\n'
p20
sS'Suu7_chi3_WBHT'
p21
S'/SuuToChiChiToWBHTToJets_MSuu-7000_MChi-3000_TuneCP5_13TeV-madgraph-pythia8/RunIISummer20UL16MiniAODAPVv2-106X_mcRun2_asymptotic_preVFP_v11-v3/MINIAODSIM\n'
p22
sS'Suu4_chi1p5_HTZT'
p23
S'/SuuToChiChiToHTZTToJets_MSuu-4000_MChi-1500_TuneCP5_13TeV-madgraph-pythia8/RunIISummer20UL16MiniAODAPVv2-106X_mcRun2_asymptotic_preVFP_v11-v3/MINIAODSIM\n'
p24
sS'Suu8_chi1p5_WBZT'
p25
S'/SuuToChiChiToWBZTToJets_MSuu-8000_MChi-1500_TuneCP5_13TeV-madgraph-pythia8/RunIISummer20UL16MiniAODAPVv2-106X_mcRun2_asymptotic_preVFP_v11-v3/MINIAODSIM\n'
p26
sS'Suu7_chi1_ZTZT'
p27
S'/SuuToChiChiToZTZTToJets_MSuu-7000_MChi-1000_TuneCP5_13TeV-madgraph-pythia8/RunIISummer20UL16MiniAODAPVv2-106X_mcRun2_asymptotic_preVFP_v11-v3/MINIAODSIM\n'
p28
sS'Suu8_chi1_HTHT'
p29
S'/SuuToChiChiToHTHTToJets_MSuu-8000_MChi-1000_TuneCP5_13TeV-madgraph-pythia8/RunIISummer20UL16MiniAODAPVv2-106X_mcRun2_asymptotic_preVFP_v11-v3/MINIAODSIM\n'
p30
sS'Suu7_chi2_HTZT'
p31
S'/SuuToChiChiToHTZTToJets_MSuu-7000_MChi-2000_TuneCP5_13TeV-madgraph-pythia8/RunIISummer20UL16MiniAODAPVv2-106X_mcRun2_asymptotic_preVFP_v11-v2/MINIAODSIM\n'
p32
sS'Suu7_chi1p5_WBZT'
p33
S'/SuuToChiChiToWBZTToJets_MSuu-7000_MChi-1500_TuneCP5_13TeV-madgraph-pythia8/RunIISummer20UL16MiniAODAPVv2-106X_mcRun2_asymptotic_preVFP_v11-v1/MINIAODSIM\n'
p34
sS'Suu8_chi1_WBZT'
p35
S'/SuuToChiChiToWBZTToJets_MSuu-8000_MChi-1000_TuneCP5_13TeV-madgraph-pythia8/RunIISummer20UL16MiniAODAPVv2-106X_mcRun2_asymptotic_preVFP_v11-v1/MINIAODSIM\n'
p36
sS'Suu5_chi2_ZTZT'
p37
S'/SuuToChiChiToZTZTToJets_MSuu-5000_MChi-2000_TuneCP5_13TeV-madgraph-pythia8/RunIISummer20UL16MiniAODAPVv2-106X_mcRun2_asymptotic_preVFP_v11-v3/MINIAODSIM\n'
p38
sS'Suu8_chi2_ZTZT'
p39
S'/SuuToChiChiToZTZTToJets_MSuu-8000_MChi-2000_TuneCP5_13TeV-madgraph-pythia8/RunIISummer20UL16MiniAODAPVv2-106X_mcRun2_asymptotic_preVFP_v11-v1/MINIAODSIM\n'
p40
sS'Suu8_chi2p5_HTZT'
p41
S'/SuuToChiChiToHTZTToJets_MSuu-8000_MChi-2500_TuneCP5_13TeV-madgraph-pythia8/RunIISummer20UL16MiniAODAPVv2-106X_mcRun2_asymptotic_preVFP_v11-v2/MINIAODSIM\n'
p42
sS'Suu4_chi1p5_HTHT'
p43
S'/SuuToChiChiToHTHTToJets_MSuu-4000_MChi-1500_TuneCP5_13TeV-madgraph-pythia8/RunIISummer20UL16MiniAODAPVv2-106X_mcRun2_asymptotic_preVFP_v11-v3/MINIAODSIM\n'
p44
sS'Suu8_chi1_WBHT'
p45
S'/SuuToChiChiToWBHTToJets_MSuu-8000_MChi-1000_TuneCP5_13TeV-madgraph-pythia8/RunIISummer20UL16MiniAODAPVv2-106X_mcRun2_asymptotic_preVFP_v11-v1/MINIAODSIM\n'
p46
sS'Suu8_chi3_WBHT'
p47
S'/SuuToChiChiToWBHTToJets_MSuu-8000_MChi-3000_TuneCP5_13TeV-madgraph-pythia8/RunIISummer20UL16MiniAODAPVv2-106X_mcRun2_asymptotic_preVFP_v11-v1/MINIAODSIM\n'
p48
sS'Suu7_chi1_HTHT'
p49
S'/SuuToChiChiToHTHTToJets_MSuu-7000_MChi-1000_TuneCP5_13TeV-madgraph-pythia8/RunIISummer20UL16MiniAODAPVv2-106X_mcRun2_asymptotic_preVFP_v11-v1/MINIAODSIM\n'
p50
sS'Suu7_chi2p5_WBHT'
p51
S'/SuuToChiChiToWBHTToJets_MSuu-7000_MChi-2500_TuneCP5_13TeV-madgraph-pythia8/RunIISummer20UL16MiniAODAPVv2-106X_mcRun2_asymptotic_preVFP_v11-v1/MINIAODSIM\n'
p52
sS'Suu7_chi3_HTHT'
p53
S'/SuuToChiChiToHTHTToJets_MSuu-7000_MChi-3000_TuneCP5_13TeV-madgraph-pythia8/RunIISummer20UL16MiniAODAPVv2-106X_mcRun2_asymptotic_preVFP_v11-v1/MINIAODSIM\n'
p54
sS'Suu4_chi1_HTZT'
p55
S'/SuuToChiChiToHTZTToJets_MSuu-4000_MChi-1000_TuneCP5_13TeV-madgraph-pythia8/RunIISummer20UL16MiniAODAPVv2-106X_mcRun2_asymptotic_preVFP_v11-v1/MINIAODSIM\n'
p56
sS'Suu6_chi1_HTHT'
p57
S'/SuuToChiChiToHTHTToJets_MSuu-6000_MChi-1000_TuneCP5_13TeV-madgraph-pythia8/RunIISummer20UL16MiniAODAPVv2-106X_mcRun2_asymptotic_preVFP_v11-v1/MINIAODSIM\n'
p58
sS'Suu4_chi1_ZTZT'
p59
S'/SuuToChiChiToZTZTToJets_MSuu-4000_MChi-1000_TuneCP5_13TeV-madgraph-pythia8/RunIISummer20UL16MiniAODAPVv2-106X_mcRun2_asymptotic_preVFP_v11-v1/MINIAODSIM\n'
p60
sS'Suu5_chi1p5_HTZT'
p61
S'/SuuToChiChiToHTZTToJets_MSuu-5000_MChi-1500_TuneCP5_13TeV-madgraph-pythia8/RunIISummer20UL16MiniAODAPVv2-106X_mcRun2_asymptotic_preVFP_v11-v2/MINIAODSIM\n'
p62
sS'Suu5_chi1p5_WBHT'
p63
S'/SuuToChiChiToWBHTToJets_MSuu-5000_MChi-1500_TuneCP5_13TeV-madgraph-pythia8/RunIISummer20UL16MiniAODAPVv2-106X_mcRun2_asymptotic_preVFP_v11-v1/MINIAODSIM\n'
p64
sS'Suu7_chi3_WBZT'
p65
S'/SuuToChiChiToWBZTToJets_MSuu-7000_MChi-3000_TuneCP5_13TeV-madgraph-pythia8/RunIISummer20UL16MiniAODAPVv2-106X_mcRun2_asymptotic_preVFP_v11-v1/MINIAODSIM\n'
p66
sS'Suu6_chi2_HTHT'
p67
S'/SuuToChiChiToHTHTToJets_MSuu-6000_MChi-2000_TuneCP5_13TeV-madgraph-pythia8/RunIISummer20UL16MiniAODAPVv2-106X_mcRun2_asymptotic_preVFP_v11-v2/MINIAODSIM\n'
p68
sS'Suu5_chi1p5_ZTZT'
p69
S'/SuuToChiChiToZTZTToJets_MSuu-5000_MChi-1500_TuneCP5_13TeV-madgraph-pythia8/RunIISummer20UL16MiniAODAPVv2-106X_mcRun2_asymptotic_preVFP_v11-v2/MINIAODSIM\n'
p70
sS'Suu6_chi1p5_ZTZT'
p71
S'/SuuToChiChiToZTZTToJets_MSuu-6000_MChi-1500_TuneCP5_13TeV-madgraph-pythia8/RunIISummer20UL16MiniAODAPVv2-106X_mcRun2_asymptotic_preVFP_v11-v1/MINIAODSIM\n'
p72
sS'Suu4_chi1p5_ZTZT'
p73
S'/SuuToChiChiToZTZTToJets_MSuu-4000_MChi-1500_TuneCP5_13TeV-madgraph-pythia8/RunIISummer20UL16MiniAODAPVv2-106X_mcRun2_asymptotic_preVFP_v11-v3/MINIAODSIM\n'
p74
sS'Suu8_chi2_HTZT'
p75
S'/SuuToChiChiToHTZTToJets_MSuu-8000_MChi-2000_TuneCP5_13TeV-madgraph-pythia8/RunIISummer20UL16MiniAODAPVv2-106X_mcRun2_asymptotic_preVFP_v11-v1/MINIAODSIM\n'
p76
sS'Suu8_chi3_HTZT'
p77
S'/SuuToChiChiToHTZTToJets_MSuu-8000_MChi-3000_TuneCP5_13TeV-madgraph-pythia8/RunIISummer20UL16MiniAODAPVv2-106X_mcRun2_asymptotic_preVFP_v11-v1/MINIAODSIM\n'
p78
sS'Suu6_chi2p5_ZTZT'
p79
S'/SuuToChiChiToZTZTToJets_MSuu-6000_MChi-2500_TuneCP5_13TeV-madgraph-pythia8/RunIISummer20UL16MiniAODAPVv2-106X_mcRun2_asymptotic_preVFP_v11-v3/MINIAODSIM\n'
p80
sS'Suu7_chi1_HTZT'
p81
S'/SuuToChiChiToHTZTToJets_MSuu-7000_MChi-1000_TuneCP5_13TeV-madgraph-pythia8/RunIISummer20UL16MiniAODAPVv2-106X_mcRun2_asymptotic_preVFP_v11-v1/MINIAODSIM\n'
p82
sS'Suu6_chi2p5_WBZT'
p83
S'/SuuToChiChiToWBZTToJets_MSuu-6000_MChi-2500_TuneCP5_13TeV-madgraph-pythia8/RunIISummer20UL16MiniAODAPVv2-106X_mcRun2_asymptotic_preVFP_v11-v1/MINIAODSIM\n'
p84
sS'Suu6_chi2_HTZT'
p85
S'/SuuToChiChiToHTZTToJets_MSuu-6200_MChi-1950_TuneCP5_13TeV-madgraph-pythia8/RunIISummer20UL16MiniAODAPVv2-106X_mcRun2_asymptotic_preVFP_v11-v2/MINIAODSIM\n'
p86
sS'Suu4_chi1p5_WBHT'
p87
S'/SuuToChiChiToWBHTToJets_MSuu-4000_MChi-1500_TuneCP5_13TeV-madgraph-pythia8/RunIISummer20UL16MiniAODAPVv2-106X_mcRun2_asymptotic_preVFP_v11-v1/MINIAODSIM\n'
p88
sS'Suu5_chi1p5_HTHT'
p89
S'/SuuToChiChiToHTHTToJets_MSuu-5000_MChi-1500_TuneCP5_13TeV-madgraph-pythia8/RunIISummer20UL16MiniAODAPVv2-106X_mcRun2_asymptotic_preVFP_v11-v1/MINIAODSIM\n'
p90
sS'Suu5_chi2_WBWB'
p91
S'/SuuToChiChiToWBWBToJets_MSuu-5000_MChi-2000_TuneCP5_13TeV-madgraph-pythia8/RunIISummer20UL16MiniAODAPVv2-106X_mcRun2_asymptotic_preVFP_v11-v2/MINIAODSIM\n'
p92
sS'Suu8_chi1_HTZT'
p93
S'/SuuToChiChiToHTZTToJets_MSuu-8000_MChi-1000_TuneCP5_13TeV-madgraph-pythia8/RunIISummer20UL16MiniAODAPVv2-106X_mcRun2_asymptotic_preVFP_v11-v1/MINIAODSIM\n'
p94
sS'Suu4_chi1_WBHT'
p95
S'/SuuToChiChiToWBHTToJets_MSuu-4000_MChi-1000_TuneCP5_13TeV-madgraph-pythia8/RunIISummer20UL16MiniAODAPVv2-106X_mcRun2_asymptotic_preVFP_v11-v3/MINIAODSIM\n'
p96
sS'Suu7_chi2p5_WBWB'
p97
S'/SuuToChiChiToWBWBToJets_MSuu-7000_MChi-2500_TuneCP5_13TeV-madgraph-pythia8/RunIISummer20UL16MiniAODAPVv2-106X_mcRun2_asymptotic_preVFP_v11-v3/MINIAODSIM\n'
p98
sS'Suu8_chi2_WBHT'
p99
S'/SuuToChiChiToWBHTToJets_MSuu-8000_MChi-2000_TuneCP5_13TeV-madgraph-pythia8/RunIISummer20UL16MiniAODAPVv2-106X_mcRun2_asymptotic_preVFP_v11-v1/MINIAODSIM\n'
p100
sS'Suu7_chi2p5_ZTZT'
p101
S'/SuuToChiChiToZTZTToJets_MSuu-7000_MChi-2500_TuneCP5_13TeV-madgraph-pythia8/RunIISummer20UL16MiniAODAPVv2-106X_mcRun2_asymptotic_preVFP_v11-v3/MINIAODSIM\n'
p102
sS'Suu5_chi1_WBZT'
p103
S'/SuuToChiChiToWBZTToJets_MSuu-5000_MChi-1000_TuneCP5_13TeV-madgraph-pythia8/RunIISummer20UL16MiniAODAPVv2-106X_mcRun2_asymptotic_preVFP_v11-v1/MINIAODSIM\n'
p104
sS'Suu5_chi1p5_WBWB'
p105
S'/SuuToChiChiToWBWBToJets_MSuu-5000_MChi-1500_TuneCP5_13TeV-madgraph-pythia8/RunIISummer20UL16MiniAODAPVv2-106X_mcRun2_asymptotic_preVFP_v11-v3/MINIAODSIM\n'
p106
sS'Suu8_chi1_ZTZT'
p107
S'/SuuToChiChiToZTZTToJets_MSuu-8000_MChi-1000_TuneCP5_13TeV-madgraph-pythia8/RunIISummer20UL16MiniAODAPVv2-106X_mcRun2_asymptotic_preVFP_v11-v1/MINIAODSIM\n'
p108
sS'Suu8_chi3_HTHT'
p109
S'/SuuToChiChiToHTHTToJets_MSuu-8000_MChi-3000_TuneCP5_13TeV-madgraph-pythia8/RunIISummer20UL16MiniAODAPVv2-106X_mcRun2_asymptotic_preVFP_v11-v3/MINIAODSIM\n'
p110
sS'Suu7_chi3_WBWB'
p111
S'/SuuToChiChiToWBWBToJets_MSuu-7000_MChi-3000_TuneCP5_13TeV-madgraph-pythia8/RunIISummer20UL16MiniAODAPVv2-106X_mcRun2_asymptotic_preVFP_v11-v3/MINIAODSIM\n'
p112
sS'Suu8_chi3_ZTZT'
p113
S'/SuuToChiChiToZTZTToJets_MSuu-8000_MChi-3000_TuneCP5_13TeV-madgraph-pythia8/RunIISummer20UL16MiniAODAPVv2-106X_mcRun2_asymptotic_preVFP_v11-v2/MINIAODSIM\n'
p114
sS'Suu6_chi2p5_HTZT'
p115
S'/SuuToChiChiToHTZTToJets_MSuu-6000_MChi-2500_TuneCP5_13TeV-madgraph-pythia8/RunIISummer20UL16MiniAODAPVv2-106X_mcRun2_asymptotic_preVFP_v11-v3/MINIAODSIM\n'
p116
sS'Suu7_chi1_WBWB'
p117
S'/SuuToChiChiToWBWBToJets_MSuu-7000_MChi-1000_TuneCP5_13TeV-madgraph-pythia8/RunIISummer20UL16MiniAODAPVv2-106X_mcRun2_asymptotic_preVFP_v11-v1/MINIAODSIM\n'
p118
sS'Suu7_chi2p5_WBZT'
p119
S'/SuuToChiChiToWBZTToJets_MSuu-7000_MChi-2500_TuneCP5_13TeV-madgraph-pythia8/RunIISummer20UL16MiniAODAPVv2-106X_mcRun2_asymptotic_preVFP_v11-v1/MINIAODSIM\n'
p120
sS'Suu7_chi1p5_HTHT'
p121
S'/SuuToChiChiToHTHTToJets_MSuu-7000_MChi-1500_TuneCP5_13TeV-madgraph-pythia8/RunIISummer20UL16MiniAODAPVv2-106X_mcRun2_asymptotic_preVFP_v11-v1/MINIAODSIM\n'
p122
sS'Suu5_chi1_HTZT'
p123
S'/SuuToChiChiToHTZTToJets_MSuu-5000_MChi-1000_TuneCP5_13TeV-madgraph-pythia8/RunIISummer20UL16MiniAODAPVv2-106X_mcRun2_asymptotic_preVFP_v11-v1/MINIAODSIM\n'
p124
sS'Suu6_chi1p5_HTZT'
p125
S'/SuuToChiChiToHTZTToJets_MSuu-6000_MChi-1500_TuneCP5_13TeV-madgraph-pythia8/RunIISummer20UL16MiniAODAPVv2-106X_mcRun2_asymptotic_preVFP_v11-v1/MINIAODSIM\n'
p126
sS'Suu8_chi2p5_WBZT'
p127
S'/SuuToChiChiToWBZTToJets_MSuu-8000_MChi-2500_TuneCP5_13TeV-madgraph-pythia8/RunIISummer20UL16MiniAODAPVv2-106X_mcRun2_asymptotic_preVFP_v11-v3/MINIAODSIM\n'
p128
sS'Suu5_chi1_WBHT'
p129
S'/SuuToChiChiToWBHTToJets_MSuu-5000_MChi-1000_TuneCP5_13TeV-madgraph-pythia8/RunIISummer20UL16MiniAODAPVv2-106X_mcRun2_asymptotic_preVFP_v11-v1/MINIAODSIM\n'
p130
sS'Suu7_chi1p5_WBWB'
p131
S'/SuuToChiChiToWBWBToJets_MSuu-7000_MChi-1500_TuneCP5_13TeV-madgraph-pythia8/RunIISummer20UL16MiniAODAPVv2-106X_mcRun2_asymptotic_preVFP_v11-v3/MINIAODSIM\n'
p132
sS'Suu8_chi1p5_HTHT'
p133
S'/SuuToChiChiToHTHTToJets_MSuu-8000_MChi-1500_TuneCP5_13TeV-madgraph-pythia8/RunIISummer20UL16MiniAODAPVv2-106X_mcRun2_asymptotic_preVFP_v11-v3/MINIAODSIM\n'
p134
sS'Suu4_chi1_WBZT'
p135
S'/SuuToChiChiToWBZTToJets_MSuu-4000_MChi-1000_TuneCP5_13TeV-madgraph-pythia8/RunIISummer20UL16MiniAODAPVv2-106X_mcRun2_asymptotic_preVFP_v11-v1/MINIAODSIM\n'
p136
sS'Suu6_chi2p5_HTHT'
p137
S'/SuuToChiChiToHTHTToJets_MSuu-6000_MChi-2500_TuneCP5_13TeV-madgraph-pythia8/RunIISummer20UL16MiniAODAPVv2-106X_mcRun2_asymptotic_preVFP_v11-v3/MINIAODSIM\n'
p138
sS'Suu5_chi2_HTHT'
p139
S'/SuuToChiChiToHTHTToJets_MSuu-5000_MChi-2000_TuneCP5_13TeV-madgraph-pythia8/RunIISummer20UL16MiniAODAPVv2-106X_mcRun2_asymptotic_preVFP_v11-v3/MINIAODSIM\n'
p140
sS'Suu6_chi1p5_WBZT'
p141
S'/SuuToChiChiToWBZTToJets_MSuu-6000_MChi-1500_TuneCP5_13TeV-madgraph-pythia8/RunIISummer20UL16MiniAODAPVv2-106X_mcRun2_asymptotic_preVFP_v11-v1/MINIAODSIM\n'
p142
sS'Suu8_chi1_WBWB'
p143
S'/SuuToChiChiToWBWBToJets_MSuu-8000_MChi-1000_TuneCP5_13TeV-madgraph-pythia8/RunIISummer20UL16MiniAODAPVv2-106X_mcRun2_asymptotic_preVFP_v11-v3/MINIAODSIM\n'
p144
sS'Suu6_chi1_WBWB'
p145
S'/SuuToChiChiToWBWBToJets_MSuu-6000_MChi-1000_TuneCP5_13TeV-madgraph-pythia8/RunIISummer20UL16MiniAODAPVv2-106X_mcRun2_asymptotic_preVFP_v11-v3/MINIAODSIM\n'
p146
sS'Suu8_chi2_WBWB'
p147
S'/SuuToChiChiToWBWBToJets_MSuu-8000_MChi-2000_TuneCP5_13TeV-madgraph-pythia8/RunIISummer20UL16MiniAODAPVv2-106X_mcRun2_asymptotic_preVFP_v11-v1/MINIAODSIM\n'
p148
sS'Suu6_chi2_ZTZT'
p149
S'/SuuToChiChiToZTZTToJets_MSuu-6000_MChi-2000_TuneCP5_13TeV-madgraph-pythia8/RunIISummer20UL16MiniAODAPVv2-106X_mcRun2_asymptotic_preVFP_v11-v2/MINIAODSIM\n'
p150
sS'Suu6_chi2p5_WBWB'
p151
S'/SuuToChiChiToWBWBToJets_MSuu-6000_MChi-2500_TuneCP5_13TeV-madgraph-pythia8/RunIISummer20UL16MiniAODAPVv2-106X_mcRun2_asymptotic_preVFP_v11-v1/MINIAODSIM\n'
p152
sS'Suu6_chi1_WBHT'
p153
S'/SuuToChiChiToWBHTToJets_MSuu-6000_MChi-1000_TuneCP5_13TeV-madgraph-pythia8/RunIISummer20UL16MiniAODAPVv2-106X_mcRun2_asymptotic_preVFP_v11-v1/MINIAODSIM\n'
p154
sS'Suu7_chi2p5_HTZT'
p155
S'/SuuToChiChiToHTZTToJets_MSuu-7000_MChi-2500_TuneCP5_13TeV-madgraph-pythia8/RunIISummer20UL16MiniAODAPVv2-106X_mcRun2_asymptotic_preVFP_v11-v3/MINIAODSIM\n'
p156
sS'Suu8_chi2p5_ZTZT'
p157
S'/SuuToChiChiToZTZTToJets_MSuu-8000_MChi-2500_TuneCP5_13TeV-madgraph-pythia8/RunIISummer20UL16MiniAODAPVv2-106X_mcRun2_asymptotic_preVFP_v11-v2/MINIAODSIM\n'
p158
sS'Suu5_chi2_WBHT'
p159
S'/SuuToChiChiToWBHTToJets_MSuu-5000_MChi-2000_TuneCP5_13TeV-madgraph-pythia8/RunIISummer20UL16MiniAODAPVv2-106X_mcRun2_asymptotic_preVFP_v11-v1/MINIAODSIM\n'
p160
sS'Suu8_chi2_HTHT'
p161
S'/SuuToChiChiToHTHTToJets_MSuu-8000_MChi-2000_TuneCP5_13TeV-madgraph-pythia8/RunIISummer20UL16MiniAODAPVv2-106X_mcRun2_asymptotic_preVFP_v11-v3/MINIAODSIM\n'
p162
sS'Suu7_chi2_HTHT'
p163
S'/SuuToChiChiToHTHTToJets_MSuu-7000_MChi-2000_TuneCP5_13TeV-madgraph-pythia8/RunIISummer20UL16MiniAODAPVv2-106X_mcRun2_asymptotic_preVFP_v11-v1/MINIAODSIM\n'
p164
sS'Suu7_chi2_WBZT'
p165
S'/SuuToChiChiToWBZTToJets_MSuu-7000_MChi-2000_TuneCP5_13TeV-madgraph-pythia8/RunIISummer20UL16MiniAODAPVv2-106X_mcRun2_asymptotic_preVFP_v11-v1/MINIAODSIM\n'
p166
sS'Suu4_chi1p5_WBZT'
p167
S'/SuuToChiChiToWBZTToJets_MSuu-4000_MChi-1500_TuneCP5_13TeV-madgraph-pythia8/RunIISummer20UL16MiniAODAPVv2-106X_mcRun2_asymptotic_preVFP_v11-v1/MINIAODSIM\n'
p168
sS'Suu8_chi1p5_HTZT'
p169
S'/SuuToChiChiToHTZTToJets_MSuu-8000_MChi-1500_TuneCP5_13TeV-madgraph-pythia8/RunIISummer20UL16MiniAODAPVv2-106X_mcRun2_asymptotic_preVFP_v11-v1/MINIAODSIM\n'
p170
sS'Suu7_chi1p5_WBHT'
p171
S'/SuuToChiChiToWBHTToJets_MSuu-7000_MChi-1500_TuneCP5_13TeV-madgraph-pythia8/RunIISummer20UL16MiniAODAPVv2-106X_mcRun2_asymptotic_preVFP_v11-v1/MINIAODSIM\n'
p172
sS'Suu4_chi1_HTHT'
p173
S'/SuuToChiChiToHTHTToJets_MSuu-4000_MChi-1000_TuneCP5_13TeV-madgraph-pythia8/RunIISummer20UL16MiniAODAPVv2-106X_mcRun2_asymptotic_preVFP_v11-v1/MINIAODSIM\n'
p174
sS'Suu7_chi2_WBHT'
p175
S'/SuuToChiChiToWBHTToJets_MSuu-7000_MChi-2000_TuneCP5_13TeV-madgraph-pythia8/RunIISummer20UL16MiniAODAPVv2-106X_mcRun2_asymptotic_preVFP_v11-v3/MINIAODSIM\n'
p176
sS'Suu6_chi1p5_HTHT'
p177
S'/SuuToChiChiToHTHTToJets_MSuu-6000_MChi-1500_TuneCP5_13TeV-madgraph-pythia8/RunIISummer20UL16MiniAODAPVv2-106X_mcRun2_asymptotic_preVFP_v11-v1/MINIAODSIM\n'
p178
sS'Suu6_chi1p5_WBHT'
p179
S'/SuuToChiChiToWBHTToJets_MSuu-6000_MChi-1500_TuneCP5_13TeV-madgraph-pythia8/RunIISummer20UL16MiniAODAPVv2-106X_mcRun2_asymptotic_preVFP_v11-v1/MINIAODSIM\n'
p180
sS'Suu7_chi2_WBWB'
p181
S'/SuuToChiChiToWBWBToJets_MSuu-7000_MChi-2000_TuneCP5_13TeV-madgraph-pythia8/RunIISummer20UL16MiniAODAPVv2-106X_mcRun2_asymptotic_preVFP_v11-v1/MINIAODSIM\n'
p182
sS'Suu8_chi2p5_WBHT'
p183
S'/SuuToChiChiToWBHTToJets_MSuu-8000_MChi-2500_TuneCP5_13TeV-madgraph-pythia8/RunIISummer20UL16MiniAODAPVv2-106X_mcRun2_asymptotic_preVFP_v11-v1/MINIAODSIM\n'
p184
sS'Suu7_chi1p5_HTZT'
p185
S'/SuuToChiChiToHTZTToJets_MSuu-7000_MChi-1500_TuneCP5_13TeV-madgraph-pythia8/RunIISummer20UL16MiniAODAPVv2-106X_mcRun2_asymptotic_preVFP_v11-v3/MINIAODSIM\n'
p186
sS'Suu4_chi1_WBWB'
p187
S'/SuuToChiChiToWBWBToJets_MSuu-4000_MChi-1000_TuneCP5_13TeV-madgraph-pythia8/RunIISummer20UL16MiniAODAPVv2-106X_mcRun2_asymptotic_preVFP_v11-v1/MINIAODSIM\n'
p188
sS'Suu5_chi2_HTZT'
p189
S'/SuuToChiChiToHTZTToJets_MSuu-5000_MChi-2000_TuneCP5_13TeV-madgraph-pythia8/RunIISummer20UL16MiniAODAPVv2-106X_mcRun2_asymptotic_preVFP_v11-v3/MINIAODSIM\n'
p190
sS'Suu5_chi1_HTHT'
p191
S'/SuuToChiChiToHTHTToJets_MSuu-5000_MChi-1000_TuneCP5_13TeV-madgraph-pythia8/RunIISummer20UL16MiniAODAPVv2-106X_mcRun2_asymptotic_preVFP_v11-v1/MINIAODSIM\n'
p192
sS'Suu8_chi2_WBZT'
p193
S'/SuuToChiChiToWBZTToJets_MSuu-8000_MChi-2000_TuneCP5_13TeV-madgraph-pythia8/RunIISummer20UL16MiniAODAPVv2-106X_mcRun2_asymptotic_preVFP_v11-v1/MINIAODSIM\n'
p194
sS'Suu5_chi1p5_WBZT'
p195
S'/SuuToChiChiToWBZTToJets_MSuu-5000_MChi-1500_TuneCP5_13TeV-madgraph-pythia8/RunIISummer20UL16MiniAODAPVv2-106X_mcRun2_asymptotic_preVFP_v11-v1/MINIAODSIM\n'
p196
sS'Suu5_chi1_ZTZT'
p197
S'/SuuToChiChiToZTZTToJets_MSuu-5000_MChi-1000_TuneCP5_13TeV-madgraph-pythia8/RunIISummer20UL16MiniAODAPVv2-106X_mcRun2_asymptotic_preVFP_v11-v1/MINIAODSIM\n'
p198
sS'Suu7_chi1_WBHT'
p199
S'/SuuToChiChiToWBHTToJets_MSuu-7000_MChi-1000_TuneCP5_13TeV-madgraph-pythia8/RunIISummer20UL16MiniAODAPVv2-106X_mcRun2_asymptotic_preVFP_v11-v1/MINIAODSIM\n'
p200
sS'Suu5_chi1_WBWB'
p201
S'/SuuToChiChiToWBWBToJets_MSuu-5000_MChi-1000_TuneCP5_13TeV-madgraph-pythia8/RunIISummer20UL16MiniAODAPVv2-106X_mcRun2_asymptotic_preVFP_v11-v1/MINIAODSIM\n'
p202
sS'Suu5_chi2_WBZT'
p203
S'/SuuToChiChiToWBZTToJets_MSuu-5000_MChi-2000_TuneCP5_13TeV-madgraph-pythia8/RunIISummer20UL16MiniAODAPVv2-106X_mcRun2_asymptotic_preVFP_v11-v3/MINIAODSIM\n'
p204
sS'Suu7_chi2p5_HTHT'
p205
S'/SuuToChiChiToHTHTToJets_MSuu-7000_MChi-2500_TuneCP5_13TeV-madgraph-pythia8/RunIISummer20UL16MiniAODAPVv2-106X_mcRun2_asymptotic_preVFP_v11-v2/MINIAODSIM\n'
p206
sS'Suu7_chi2_ZTZT'
p207
S'/SuuToChiChiToZTZTToJets_MSuu-7000_MChi-2000_TuneCP5_13TeV-madgraph-pythia8/RunIISummer20UL16MiniAODAPVv2-106X_mcRun2_asymptotic_preVFP_v11-v1/MINIAODSIM\n'
p208
sS'Suu6_chi1_HTZT'
p209
S'/SuuToChiChiToHTZTToJets_MSuu-6000_MChi-1000_TuneCP5_13TeV-madgraph-pythia8/RunIISummer20UL16MiniAODAPVv2-106X_mcRun2_asymptotic_preVFP_v11-v3/MINIAODSIM\n'
p210
sS'Suu8_chi1p5_ZTZT'
p211
S'/SuuToChiChiToZTZTToJets_MSuu-8000_MChi-1500_TuneCP5_13TeV-madgraph-pythia8/RunIISummer20UL16MiniAODAPVv2-106X_mcRun2_asymptotic_preVFP_v11-v1/MINIAODSIM\n'
p212
sS'Suu7_chi3_HTZT'
p213
S'/SuuToChiChiToHTZTToJets_MSuu-7000_MChi-3000_TuneCP5_13TeV-madgraph-pythia8/RunIISummer20UL16MiniAODAPVv2-106X_mcRun2_asymptotic_preVFP_v11-v3/MINIAODSIM\n'
p214
sS'Suu7_chi3_ZTZT'
p215
S'/SuuToChiChiToZTZTToJets_MSuu-7000_MChi-3000_TuneCP5_13TeV-madgraph-pythia8/RunIISummer20UL16MiniAODAPVv2-106X_mcRun2_asymptotic_preVFP_v11-v2/MINIAODSIM\n'
p216
sS'Suu6_chi2p5_WBHT'
p217
S'/SuuToChiChiToWBHTToJets_MSuu-6000_MChi-2500_TuneCP5_13TeV-madgraph-pythia8/RunIISummer20UL16MiniAODAPVv2-106X_mcRun2_asymptotic_preVFP_v11-v1/MINIAODSIM\n'
p218
sS'Suu7_chi1p5_ZTZT'
p219
S'/SuuToChiChiToZTZTToJets_MSuu-7000_MChi-1500_TuneCP5_13TeV-madgraph-pythia8/RunIISummer20UL16MiniAODAPVv2-106X_mcRun2_asymptotic_preVFP_v11-v3/MINIAODSIM\n'
p220
sS'Suu8_chi3_WBZT'
p221
S'/SuuToChiChiToWBZTToJets_MSuu-8000_MChi-3000_TuneCP5_13TeV-madgraph-pythia8/RunIISummer20UL16MiniAODAPVv2-106X_mcRun2_asymptotic_preVFP_v11-v1/MINIAODSIM\n'
p222
sS'Suu6_chi1_ZTZT'
p223
S'/SuuToChiChiToZTZTToJets_MSuu-6000_MChi-1000_TuneCP5_13TeV-madgraph-pythia8/RunIISummer20UL16MiniAODAPVv2-106X_mcRun2_asymptotic_preVFP_v11-v1/MINIAODSIM\n'
p224
sS'Suu8_chi1p5_WBWB'
p225
S'/SuuToChiChiToWBWBToJets_MSuu-8000_MChi-1500_TuneCP5_13TeV-madgraph-pythia8/RunIISummer20UL16MiniAODAPVv2-106X_mcRun2_asymptotic_preVFP_v11-v3/MINIAODSIM\n'
p226
sS'Suu6_chi2_WBZT'
p227
S'/SuuToChiChiToWBZTToJets_MSuu-6000_MChi-2000_TuneCP5_13TeV-madgraph-pythia8/RunIISummer20UL16MiniAODAPVv2-106X_mcRun2_asymptotic_preVFP_v11-v1/MINIAODSIM\n'
p228
sS'Suu8_chi1p5_WBHT'
p229
S'/SuuToChiChiToWBHTToJets_MSuu-8000_MChi-1500_TuneCP5_13TeV-madgraph-pythia8/RunIISummer20UL16MiniAODAPVv2-106X_mcRun2_asymptotic_preVFP_v11-v1/MINIAODSIM\n'
p230
ssS'2017'
p231
(dp232
S'Suu6_chi2_WBHT'
p233
S'/SuuToChiChiToWBHTToJets_MSuu-6000_MChi-2000_TuneCP5_13TeV-madgraph-pythia8/RunIISummer20UL17MiniAODv2-106X_mc2017_realistic_v9-v3/MINIAODSIM\n'
p234
sS'Suu8_chi2p5_WBWB'
p235
S'/SuuToChiChiToWBWBToJets_MSuu-8000_MChi-2500_TuneCP5_13TeV-madgraph-pythia8/RunIISummer20UL17MiniAODv2-106X_mc2017_realistic_v9-v3/MINIAODSIM\n'
p236
sS'Suu6_chi2_WBWB'
p237
S'/SuuToChiChiToWBWBToJets_MSuu-6000_MChi-2000_TuneCP5_13TeV-madgraph-pythia8/RunIISummer20UL17MiniAODv2-106X_mc2017_realistic_v9-v2/MINIAODSIM\n'
p238
sS'Suu4_chi1p5_WBWB'
p239
S'/SuuToChiChiToWBWBToJets_MSuu-4000_MChi-1500_TuneCP5_13TeV-madgraph-pythia8/RunIISummer20UL17MiniAODv2-106X_mc2017_realistic_v9-v3/MINIAODSIM\n'
p240
sS'Suu7_chi1_WBZT'
p241
S'/SuuToChiChiToWBZTToJets_MSuu-7000_MChi-1000_TuneCP5_13TeV-madgraph-pythia8/RunIISummer20UL17MiniAODv2-106X_mc2017_realistic_v9-v3/MINIAODSIM\n'
p242
sS'Suu8_chi2p5_HTHT'
p243
S'/SuuToChiChiToHTHTToJets_MSuu-8000_MChi-2500_TuneCP5_13TeV-madgraph-pythia8/RunIISummer20UL17MiniAODv2-106X_mc2017_realistic_v9-v2/MINIAODSIM\n'
p244
sS'Suu8_chi3_WBWB'
p245
S'/SuuToChiChiToWBWBToJets_MSuu-8000_MChi-3000_TuneCP5_13TeV-madgraph-pythia8/RunIISummer20UL17MiniAODv2-106X_mc2017_realistic_v9-v2/MINIAODSIM\n'
p246
sS'Suu6_chi1p5_WBWB'
p247
S'/SuuToChiChiToWBWBToJets_MSuu-6000_MChi-1500_TuneCP5_13TeV-madgraph-pythia8/RunIISummer20UL17MiniAODv2-106X_mc2017_realistic_v9-v1/MINIAODSIM\n'
p248
sS'Suu6_chi1_WBZT'
p249
S'/SuuToChiChiToWBZTToJets_MSuu-6000_MChi-1000_TuneCP5_13TeV-madgraph-pythia8/RunIISummer20UL17MiniAODv2-106X_mc2017_realistic_v9-v3/MINIAODSIM\n'
p250
sS'Suu7_chi3_WBHT'
p251
S'/SuuToChiChiToWBHTToJets_MSuu-7000_MChi-3000_TuneCP5_13TeV-madgraph-pythia8/RunIISummer20UL17MiniAODv2-106X_mc2017_realistic_v9-v3/MINIAODSIM\n'
p252
sS'Suu4_chi1p5_HTZT'
p253
S'/SuuToChiChiToHTZTToJets_MSuu-4000_MChi-1500_TuneCP5_13TeV-madgraph-pythia8/RunIISummer20UL17MiniAODv2-106X_mc2017_realistic_v9-v3/MINIAODSIM\n'
p254
sS'Suu8_chi1p5_WBZT'
p255
S'/SuuToChiChiToWBZTToJets_MSuu-8000_MChi-1500_TuneCP5_13TeV-madgraph-pythia8/RunIISummer20UL17MiniAODv2-106X_mc2017_realistic_v9-v1/MINIAODSIM\n'
p256
sS'Suu7_chi1_ZTZT'
p257
S'/SuuToChiChiToZTZTToJets_MSuu-7000_MChi-1000_TuneCP5_13TeV-madgraph-pythia8/RunIISummer20UL17MiniAODv2-106X_mc2017_realistic_v9-v3/MINIAODSIM\n'
p258
sS'Suu8_chi1_HTHT'
p259
S'/SuuToChiChiToHTHTToJets_MSuu-8000_MChi-1000_TuneCP5_13TeV-madgraph-pythia8/RunIISummer20UL17MiniAODv2-106X_mc2017_realistic_v9-v3/MINIAODSIM\n'
p260
sS'Suu7_chi2_HTZT'
p261
S'/SuuToChiChiToHTZTToJets_MSuu-7000_MChi-2000_TuneCP5_13TeV-madgraph-pythia8/RunIISummer20UL17MiniAODv2-106X_mc2017_realistic_v9-v2/MINIAODSIM\n'
p262
sS'Suu7_chi1p5_WBZT'
p263
S'/SuuToChiChiToWBZTToJets_MSuu-7000_MChi-1500_TuneCP5_13TeV-madgraph-pythia8/RunIISummer20UL17MiniAODv2-106X_mc2017_realistic_v9-v1/MINIAODSIM\n'
p264
sS'Suu8_chi1_WBZT'
p265
S'/SuuToChiChiToWBZTToJets_MSuu-8000_MChi-1000_TuneCP5_13TeV-madgraph-pythia8/RunIISummer20UL17MiniAODv2-106X_mc2017_realistic_v9-v1/MINIAODSIM\n'
p266
sS'Suu5_chi2_ZTZT'
p267
S'/SuuToChiChiToZTZTToJets_MSuu-5000_MChi-2000_TuneCP5_13TeV-madgraph-pythia8/RunIISummer20UL17MiniAODv2-106X_mc2017_realistic_v9-v2/MINIAODSIM\n'
p268
sS'Suu8_chi2_ZTZT'
p269
S'/SuuToChiChiToZTZTToJets_MSuu-8000_MChi-2000_TuneCP5_13TeV-madgraph-pythia8/RunIISummer20UL17MiniAODv2-106X_mc2017_realistic_v9-v1/MINIAODSIM\n'
p270
sS'Suu8_chi2p5_HTZT'
p271
S'/SuuToChiChiToHTZTToJets_MSuu-8000_MChi-2500_TuneCP5_13TeV-madgraph-pythia8/RunIISummer20UL17MiniAODv2-106X_mc2017_realistic_v9-v2/MINIAODSIM\n'
p272
sS'Suu4_chi1p5_HTHT'
p273
S'/SuuToChiChiToHTHTToJets_MSuu-4000_MChi-1500_TuneCP5_13TeV-madgraph-pythia8/RunIISummer20UL17MiniAODv2-106X_mc2017_realistic_v9-v3/MINIAODSIM\n'
p274
sS'Suu8_chi1_WBHT'
p275
S'/SuuToChiChiToWBHTToJets_MSuu-8000_MChi-1000_TuneCP5_13TeV-madgraph-pythia8/RunIISummer20UL17MiniAODv2-106X_mc2017_realistic_v9-v1/MINIAODSIM\n'
p276
sS'Suu8_chi3_WBHT'
p277
S'/SuuToChiChiToWBHTToJets_MSuu-8000_MChi-3000_TuneCP5_13TeV-madgraph-pythia8/RunIISummer20UL17MiniAODv2-106X_mc2017_realistic_v9-v3/MINIAODSIM\n'
p278
sS'Suu7_chi1_HTHT'
p279
S'/SuuToChiChiToHTHTToJets_MSuu-7000_MChi-1000_TuneCP5_13TeV-madgraph-pythia8/RunIISummer20UL17MiniAODv2-106X_mc2017_realistic_v9-v1/MINIAODSIM\n'
p280
sS'Suu7_chi2p5_WBHT'
p281
S'/SuuToChiChiToWBHTToJets_MSuu-7000_MChi-2500_TuneCP5_13TeV-madgraph-pythia8/RunIISummer20UL17MiniAODv2-106X_mc2017_realistic_v9-v1/MINIAODSIM\n'
p282
sS'Suu7_chi3_HTHT'
p283
S'/SuuToChiChiToHTHTToJets_MSuu-7000_MChi-3000_TuneCP5_13TeV-madgraph-pythia8/RunIISummer20UL17MiniAODv2-106X_mc2017_realistic_v9-v3/MINIAODSIM\n'
p284
sS'Suu4_chi1_HTZT'
p285
S'/SuuToChiChiToHTZTToJets_MSuu-4000_MChi-1000_TuneCP5_13TeV-madgraph-pythia8/RunIISummer20UL17MiniAODv2-106X_mc2017_realistic_v9-v3/MINIAODSIM\n'
p286
sS'Suu6_chi1_HTHT'
p287
S'/SuuToChiChiToHTHTToJets_MSuu-6000_MChi-1000_TuneCP5_13TeV-madgraph-pythia8/RunIISummer20UL17MiniAODv2-106X_mc2017_realistic_v9-v3/MINIAODSIM\n'
p288
sS'Suu4_chi1_ZTZT'
p289
S'/SuuToChiChiToZTZTToJets_MSuu-4000_MChi-1000_TuneCP5_13TeV-madgraph-pythia8/RunIISummer20UL17MiniAODv2-106X_mc2017_realistic_v9-v3/MINIAODSIM\n'
p290
sS'Suu5_chi1p5_HTZT'
p291
S'/SuuToChiChiToHTZTToJets_MSuu-5000_MChi-1500_TuneCP5_13TeV-madgraph-pythia8/RunIISummer20UL17MiniAODv2-106X_mc2017_realistic_v9-v1/MINIAODSIM\n'
p292
sS'Suu5_chi1p5_WBHT'
p293
S'/SuuToChiChiToWBHTToJets_MSuu-5000_MChi-1500_TuneCP5_13TeV-madgraph-pythia8/RunIISummer20UL17MiniAODv2-106X_mc2017_realistic_v9-v3/MINIAODSIM\n'
p294
sS'Suu7_chi3_WBZT'
p295
S'/SuuToChiChiToWBZTToJets_MSuu-7000_MChi-3000_TuneCP5_13TeV-madgraph-pythia8/RunIISummer20UL17MiniAODv2-106X_mc2017_realistic_v9-v1/MINIAODSIM\n'
p296
sS'Suu6_chi2_HTHT'
p297
S'/SuuToChiChiToHTHTToJets_MSuu-6000_MChi-2000_TuneCP5_13TeV-madgraph-pythia8/RunIISummer20UL17MiniAODv2-106X_mc2017_realistic_v9-v2/MINIAODSIM\n'
p298
sS'Suu5_chi1p5_ZTZT'
p299
S'/SuuToChiChiToZTZTToJets_MSuu-5000_MChi-1500_TuneCP5_13TeV-madgraph-pythia8/RunIISummer20UL17MiniAODv2-106X_mc2017_realistic_v9-v2/MINIAODSIM\n'
p300
sS'Suu6_chi1p5_ZTZT'
p301
S'/SuuToChiChiToZTZTToJets_MSuu-6000_MChi-1500_TuneCP5_13TeV-madgraph-pythia8/RunIISummer20UL17MiniAODv2-106X_mc2017_realistic_v9-v1/MINIAODSIM\n'
p302
sS'Suu4_chi1p5_ZTZT'
p303
S'/SuuToChiChiToZTZTToJets_MSuu-4000_MChi-1500_TuneCP5_13TeV-madgraph-pythia8/RunIISummer20UL17MiniAODv2-106X_mc2017_realistic_v9-v3/MINIAODSIM\n'
p304
sS'Suu8_chi2_HTZT'
p305
S'/SuuToChiChiToHTZTToJets_MSuu-8000_MChi-2000_TuneCP5_13TeV-madgraph-pythia8/RunIISummer20UL17MiniAODv2-106X_mc2017_realistic_v9-v1/MINIAODSIM\n'
p306
sS'Suu8_chi3_HTZT'
p307
S'/SuuToChiChiToHTZTToJets_MSuu-8000_MChi-3000_TuneCP5_13TeV-madgraph-pythia8/RunIISummer20UL17MiniAODv2-106X_mc2017_realistic_v9-v3/MINIAODSIM\n'
p308
sS'Suu6_chi2p5_ZTZT'
p309
S'/SuuToChiChiToZTZTToJets_MSuu-6000_MChi-2500_TuneCP5_13TeV-madgraph-pythia8/RunIISummer20UL17MiniAODv2-106X_mc2017_realistic_v9-v2/MINIAODSIM\n'
p310
sS'Suu7_chi1_HTZT'
p311
S'/SuuToChiChiToHTZTToJets_MSuu-7000_MChi-1000_TuneCP5_13TeV-madgraph-pythia8/RunIISummer20UL17MiniAODv2-106X_mc2017_realistic_v9-v3/MINIAODSIM\n'
p312
sS'Suu6_chi2p5_WBZT'
p313
S'/SuuToChiChiToWBZTToJets_MSuu-6000_MChi-2500_TuneCP5_13TeV-madgraph-pythia8/RunIISummer20UL17MiniAODv2-106X_mc2017_realistic_v9-v1/MINIAODSIM\n'
p314
sS'Suu6_chi2_HTZT'
p315
S'/SuuToChiChiToHTZTToJets_MSuu-6200_MChi-1950_TuneCP5_13TeV-madgraph-pythia8/RunIISummer20UL17MiniAODv2-106X_mc2017_realistic_v9-v2/MINIAODSIM\n'
p316
sS'Suu4_chi1p5_WBHT'
p317
S'/SuuToChiChiToWBHTToJets_MSuu-4000_MChi-1500_TuneCP5_13TeV-madgraph-pythia8/RunIISummer20UL17MiniAODv2-106X_mc2017_realistic_v9-v1/MINIAODSIM\n'
p318
sS'Suu5_chi1p5_HTHT'
p319
S'/SuuToChiChiToHTHTToJets_MSuu-5000_MChi-1500_TuneCP5_13TeV-madgraph-pythia8/RunIISummer20UL17MiniAODv2-106X_mc2017_realistic_v9-v3/MINIAODSIM\n'
p320
sS'Suu5_chi2_WBWB'
p321
S'/SuuToChiChiToWBWBToJets_MSuu-5000_MChi-2000_TuneCP5_13TeV-madgraph-pythia8/RunIISummer20UL17MiniAODv2-106X_mc2017_realistic_v9-v3/MINIAODSIM\n'
p322
sS'Suu8_chi1_HTZT'
p323
S'/SuuToChiChiToHTZTToJets_MSuu-8000_MChi-1000_TuneCP5_13TeV-madgraph-pythia8/RunIISummer20UL17MiniAODv2-106X_mc2017_realistic_v9-v3/MINIAODSIM\n'
p324
sS'Suu4_chi1_WBHT'
p325
S'/SuuToChiChiToWBHTToJets_MSuu-4000_MChi-1000_TuneCP5_13TeV-madgraph-pythia8/RunIISummer20UL17MiniAODv2-106X_mc2017_realistic_v9-v3/MINIAODSIM\n'
p326
sS'Suu7_chi2p5_WBWB'
p327
S'/SuuToChiChiToWBWBToJets_MSuu-7000_MChi-2500_TuneCP5_13TeV-madgraph-pythia8/RunIISummer20UL17MiniAODv2-106X_mc2017_realistic_v9-v1/MINIAODSIM\n'
p328
sS'Suu8_chi2_WBHT'
p329
S'/SuuToChiChiToWBHTToJets_MSuu-8000_MChi-2000_TuneCP5_13TeV-madgraph-pythia8/RunIISummer20UL17MiniAODv2-106X_mc2017_realistic_v9-v1/MINIAODSIM\n'
p330
sS'Suu7_chi2p5_ZTZT'
p331
S'/SuuToChiChiToZTZTToJets_MSuu-7000_MChi-2500_TuneCP5_13TeV-madgraph-pythia8/RunIISummer20UL17MiniAODv2-106X_mc2017_realistic_v9-v3/MINIAODSIM\n'
p332
sS'Suu5_chi1_WBZT'
p333
S'/SuuToChiChiToWBZTToJets_MSuu-5000_MChi-1000_TuneCP5_13TeV-madgraph-pythia8/RunIISummer20UL17MiniAODv2-106X_mc2017_realistic_v9-v1/MINIAODSIM\n'
p334
sS'Suu5_chi1p5_WBWB'
p335
S'/SuuToChiChiToWBWBToJets_MSuu-5000_MChi-1500_TuneCP5_13TeV-madgraph-pythia8/RunIISummer20UL17MiniAODv2-106X_mc2017_realistic_v9-v1/MINIAODSIM\n'
p336
sS'Suu8_chi1_ZTZT'
p337
S'/SuuToChiChiToZTZTToJets_MSuu-8000_MChi-1000_TuneCP5_13TeV-madgraph-pythia8/RunIISummer20UL17MiniAODv2-106X_mc2017_realistic_v9-v1/MINIAODSIM\n'
p338
sS'Suu8_chi3_HTHT'
p339
S'/SuuToChiChiToHTHTToJets_MSuu-8000_MChi-3000_TuneCP5_13TeV-madgraph-pythia8/RunIISummer20UL17MiniAODv2-106X_mc2017_realistic_v9-v3/MINIAODSIM\n'
p340
sS'Suu7_chi3_WBWB'
p341
S'/SuuToChiChiToWBWBToJets_MSuu-7000_MChi-3000_TuneCP5_13TeV-madgraph-pythia8/RunIISummer20UL17MiniAODv2-106X_mc2017_realistic_v9-v2/MINIAODSIM\n'
p342
sS'Suu8_chi3_ZTZT'
p343
S'/SuuToChiChiToZTZTToJets_MSuu-8000_MChi-3000_TuneCP5_13TeV-madgraph-pythia8/RunIISummer20UL17MiniAODv2-106X_mc2017_realistic_v9-v2/MINIAODSIM\n'
p344
sS'Suu6_chi2p5_HTZT'
p345
S'/SuuToChiChiToHTZTToJets_MSuu-6000_MChi-2500_TuneCP5_13TeV-madgraph-pythia8/RunIISummer20UL17MiniAODv2-106X_mc2017_realistic_v9-v3/MINIAODSIM\n'
p346
sS'Suu7_chi1_WBWB'
p347
S'/SuuToChiChiToWBWBToJets_MSuu-7000_MChi-1000_TuneCP5_13TeV-madgraph-pythia8/RunIISummer20UL17MiniAODv2-106X_mc2017_realistic_v9-v1/MINIAODSIM\n'
p348
sS'Suu7_chi2p5_WBZT'
p349
S'/SuuToChiChiToWBZTToJets_MSuu-7000_MChi-2500_TuneCP5_13TeV-madgraph-pythia8/RunIISummer20UL17MiniAODv2-106X_mc2017_realistic_v9-v3/MINIAODSIM\n'
p350
sS'Suu7_chi1p5_HTHT'
p351
S'/SuuToChiChiToHTHTToJets_MSuu-7000_MChi-1500_TuneCP5_13TeV-madgraph-pythia8/RunIISummer20UL17MiniAODv2-106X_mc2017_realistic_v9-v3/MINIAODSIM\n'
p352
sS'Suu5_chi1_HTZT'
p353
S'/SuuToChiChiToHTZTToJets_MSuu-5000_MChi-1000_TuneCP5_13TeV-madgraph-pythia8/RunIISummer20UL17MiniAODv2-106X_mc2017_realistic_v9-v3/MINIAODSIM\n'
p354
sS'Suu6_chi1p5_HTZT'
p355
S'/SuuToChiChiToHTZTToJets_MSuu-6000_MChi-1500_TuneCP5_13TeV-madgraph-pythia8/RunIISummer20UL17MiniAODv2-106X_mc2017_realistic_v9-v1/MINIAODSIM\n'
p356
sS'Suu8_chi2p5_WBZT'
p357
S'/SuuToChiChiToWBZTToJets_MSuu-8000_MChi-2500_TuneCP5_13TeV-madgraph-pythia8/RunIISummer20UL17MiniAODv2-106X_mc2017_realistic_v9-v3/MINIAODSIM\n'
p358
sS'Suu5_chi1_WBHT'
p359
S'/SuuToChiChiToWBHTToJets_MSuu-5000_MChi-1000_TuneCP5_13TeV-madgraph-pythia8/RunIISummer20UL17MiniAODv2-106X_mc2017_realistic_v9-v3/MINIAODSIM\n'
p360
sS'Suu7_chi1p5_WBWB'
p361
S'/SuuToChiChiToWBWBToJets_MSuu-7000_MChi-1500_TuneCP5_13TeV-madgraph-pythia8/RunIISummer20UL17MiniAODv2-106X_mc2017_realistic_v9-v1/MINIAODSIM\n'
p362
sS'Suu8_chi1p5_HTHT'
p363
S'/SuuToChiChiToHTHTToJets_MSuu-8000_MChi-1500_TuneCP5_13TeV-madgraph-pythia8/RunIISummer20UL17MiniAODv2-106X_mc2017_realistic_v9-v3/MINIAODSIM\n'
p364
sS'Suu4_chi1_WBZT'
p365
S'/SuuToChiChiToWBZTToJets_MSuu-4000_MChi-1000_TuneCP5_13TeV-madgraph-pythia8/RunIISummer20UL17MiniAODv2-106X_mc2017_realistic_v9-v1/MINIAODSIM\n'
p366
sS'Suu6_chi2p5_HTHT'
p367
S'/SuuToChiChiToHTHTToJets_MSuu-6000_MChi-2500_TuneCP5_13TeV-madgraph-pythia8/RunIISummer20UL17MiniAODv2-106X_mc2017_realistic_v9-v3/MINIAODSIM\n'
p368
sS'Suu5_chi2_HTHT'
p369
S'/SuuToChiChiToHTHTToJets_MSuu-5000_MChi-2000_TuneCP5_13TeV-madgraph-pythia8/RunIISummer20UL17MiniAODv2-106X_mc2017_realistic_v9-v3/MINIAODSIM\n'
p370
sS'Suu6_chi1p5_WBZT'
p371
S'/SuuToChiChiToWBZTToJets_MSuu-6000_MChi-1500_TuneCP5_13TeV-madgraph-pythia8/RunIISummer20UL17MiniAODv2-106X_mc2017_realistic_v9-v3/MINIAODSIM\n'
p372
sS'Suu8_chi1_WBWB'
p373
S'/SuuToChiChiToWBWBToJets_MSuu-8000_MChi-1000_TuneCP5_13TeV-madgraph-pythia8/RunIISummer20UL17MiniAODv2-106X_mc2017_realistic_v9-v3/MINIAODSIM\n'
p374
sS'Suu6_chi1_WBWB'
p375
S'/SuuToChiChiToWBWBToJets_MSuu-6000_MChi-1000_TuneCP5_13TeV-madgraph-pythia8/RunIISummer20UL17MiniAODv2-106X_mc2017_realistic_v9-v1/MINIAODSIM\n'
p376
sS'Suu8_chi2_WBWB'
p377
S'/SuuToChiChiToWBWBToJets_MSuu-8000_MChi-2000_TuneCP5_13TeV-madgraph-pythia8/RunIISummer20UL17MiniAODv2-106X_mc2017_realistic_v9-v1/MINIAODSIM\n'
p378
sS'Suu6_chi2_ZTZT'
p379
S'/SuuToChiChiToZTZTToJets_MSuu-6000_MChi-2000_TuneCP5_13TeV-madgraph-pythia8/RunIISummer20UL17MiniAODv2-106X_mc2017_realistic_v9-v2/MINIAODSIM\n'
p380
sS'Suu6_chi2p5_WBWB'
p381
S'/SuuToChiChiToWBWBToJets_MSuu-6000_MChi-2500_TuneCP5_13TeV-madgraph-pythia8/RunIISummer20UL17MiniAODv2-106X_mc2017_realistic_v9-v3/MINIAODSIM\n'
p382
sS'Suu6_chi1_WBHT'
p383
S'/SuuToChiChiToWBHTToJets_MSuu-6000_MChi-1000_TuneCP5_13TeV-madgraph-pythia8/RunIISummer20UL17MiniAODv2-106X_mc2017_realistic_v9-v3/MINIAODSIM\n'
p384
sS'Suu7_chi2p5_HTZT'
p385
S'/SuuToChiChiToHTZTToJets_MSuu-7000_MChi-2500_TuneCP5_13TeV-madgraph-pythia8/RunIISummer20UL17MiniAODv2-106X_mc2017_realistic_v9-v1/MINIAODSIM\n'
p386
sS'Suu8_chi2p5_ZTZT'
p387
S'/SuuToChiChiToZTZTToJets_MSuu-8000_MChi-2500_TuneCP5_13TeV-madgraph-pythia8/RunIISummer20UL17MiniAODv2-106X_mc2017_realistic_v9-v2/MINIAODSIM\n'
p388
sS'Suu5_chi2_WBHT'
p389
S'/SuuToChiChiToWBHTToJets_MSuu-5000_MChi-2000_TuneCP5_13TeV-madgraph-pythia8/RunIISummer20UL17MiniAODv2-106X_mc2017_realistic_v9-v1/MINIAODSIM\n'
p390
sS'Suu8_chi2_HTHT'
p391
S'/SuuToChiChiToHTHTToJets_MSuu-8000_MChi-2000_TuneCP5_13TeV-madgraph-pythia8/RunIISummer20UL17MiniAODv2-106X_mc2017_realistic_v9-v3/MINIAODSIM\n'
p392
sS'Suu7_chi2_HTHT'
p393
S'/SuuToChiChiToHTHTToJets_MSuu-7000_MChi-2000_TuneCP5_13TeV-madgraph-pythia8/RunIISummer20UL17MiniAODv2-106X_mc2017_realistic_v9-v1/MINIAODSIM\n'
p394
sS'Suu7_chi2_WBZT'
p395
S'/SuuToChiChiToWBZTToJets_MSuu-7000_MChi-2000_TuneCP5_13TeV-madgraph-pythia8/RunIISummer20UL17MiniAODv2-106X_mc2017_realistic_v9-v3/MINIAODSIM\n'
p396
sS'Suu4_chi1p5_WBZT'
p397
S'/SuuToChiChiToWBZTToJets_MSuu-4000_MChi-1500_TuneCP5_13TeV-madgraph-pythia8/RunIISummer20UL17MiniAODv2-106X_mc2017_realistic_v9-v3/MINIAODSIM\n'
p398
sS'Suu8_chi1p5_HTZT'
p399
S'/SuuToChiChiToHTZTToJets_MSuu-8000_MChi-1500_TuneCP5_13TeV-madgraph-pythia8/RunIISummer20UL17MiniAODv2-106X_mc2017_realistic_v9-v1/MINIAODSIM\n'
p400
sS'Suu7_chi1p5_WBHT'
p401
S'/SuuToChiChiToWBHTToJets_MSuu-7000_MChi-1500_TuneCP5_13TeV-madgraph-pythia8/RunIISummer20UL17MiniAODv2-106X_mc2017_realistic_v9-v1/MINIAODSIM\n'
p402
sS'Suu4_chi1_HTHT'
p403
S'/SuuToChiChiToHTHTToJets_MSuu-4000_MChi-1000_TuneCP5_13TeV-madgraph-pythia8/RunIISummer20UL17MiniAODv2-106X_mc2017_realistic_v9-v3/MINIAODSIM\n'
p404
sS'Suu7_chi2_WBHT'
p405
S'/SuuToChiChiToWBHTToJets_MSuu-7000_MChi-2000_TuneCP5_13TeV-madgraph-pythia8/RunIISummer20UL17MiniAODv2-106X_mc2017_realistic_v9-v1/MINIAODSIM\n'
p406
sS'Suu6_chi1p5_HTHT'
p407
S'/SuuToChiChiToHTHTToJets_MSuu-6000_MChi-1500_TuneCP5_13TeV-madgraph-pythia8/RunIISummer20UL17MiniAODv2-106X_mc2017_realistic_v9-v3/MINIAODSIM\n'
p408
sS'Suu6_chi1p5_WBHT'
p409
S'/SuuToChiChiToWBHTToJets_MSuu-6000_MChi-1500_TuneCP5_13TeV-madgraph-pythia8/RunIISummer20UL17MiniAODv2-106X_mc2017_realistic_v9-v1/MINIAODSIM\n'
p410
sS'Suu7_chi2_WBWB'
p411
S'/SuuToChiChiToWBWBToJets_MSuu-7000_MChi-2000_TuneCP5_13TeV-madgraph-pythia8/RunIISummer20UL17MiniAODv2-106X_mc2017_realistic_v9-v1/MINIAODSIM\n'
p412
sS'Suu8_chi2p5_WBHT'
p413
S'/SuuToChiChiToWBHTToJets_MSuu-8000_MChi-2500_TuneCP5_13TeV-madgraph-pythia8/RunIISummer20UL17MiniAODv2-106X_mc2017_realistic_v9-v1/MINIAODSIM\n'
p414
sS'Suu7_chi1p5_HTZT'
p415
S'/SuuToChiChiToHTZTToJets_MSuu-7000_MChi-1500_TuneCP5_13TeV-madgraph-pythia8/RunIISummer20UL17MiniAODv2-106X_mc2017_realistic_v9-v2/MINIAODSIM\n'
p416
sS'Suu4_chi1_WBWB'
p417
S'/SuuToChiChiToWBWBToJets_MSuu-4000_MChi-1000_TuneCP5_13TeV-madgraph-pythia8/RunIISummer20UL17MiniAODv2-106X_mc2017_realistic_v9-v1/MINIAODSIM\n'
p418
sS'Suu5_chi2_HTZT'
p419
S'/SuuToChiChiToHTZTToJets_MSuu-5000_MChi-2000_TuneCP5_13TeV-madgraph-pythia8/RunIISummer20UL17MiniAODv2-106X_mc2017_realistic_v9-v2/MINIAODSIM\n'
p420
sS'Suu5_chi1_HTHT'
p421
S'/SuuToChiChiToHTHTToJets_MSuu-5000_MChi-1000_TuneCP5_13TeV-madgraph-pythia8/RunIISummer20UL17MiniAODv2-106X_mc2017_realistic_v9-v1/MINIAODSIM\n'
p422
sS'Suu8_chi2_WBZT'
p423
S'/SuuToChiChiToWBZTToJets_MSuu-8000_MChi-2000_TuneCP5_13TeV-madgraph-pythia8/RunIISummer20UL17MiniAODv2-106X_mc2017_realistic_v9-v1/MINIAODSIM\n'
p424
sS'Suu5_chi1p5_WBZT'
p425
S'/SuuToChiChiToWBZTToJets_MSuu-5000_MChi-1500_TuneCP5_13TeV-madgraph-pythia8/RunIISummer20UL17MiniAODv2-106X_mc2017_realistic_v9-v3/MINIAODSIM\n'
p426
sS'Suu5_chi1_ZTZT'
p427
S'/SuuToChiChiToZTZTToJets_MSuu-5000_MChi-1000_TuneCP5_13TeV-madgraph-pythia8/RunIISummer20UL17MiniAODv2-106X_mc2017_realistic_v9-v3/MINIAODSIM\n'
p428
sS'Suu7_chi1_WBHT'
p429
S'/SuuToChiChiToWBHTToJets_MSuu-7000_MChi-1000_TuneCP5_13TeV-madgraph-pythia8/RunIISummer20UL17MiniAODv2-106X_mc2017_realistic_v9-v3/MINIAODSIM\n'
p430
sS'Suu5_chi1_WBWB'
p431
S'/SuuToChiChiToWBWBToJets_MSuu-5000_MChi-1000_TuneCP5_13TeV-madgraph-pythia8/RunIISummer20UL17MiniAODv2-106X_mc2017_realistic_v9-v3/MINIAODSIM\n'
p432
sS'Suu5_chi2_WBZT'
p433
S'/SuuToChiChiToWBZTToJets_MSuu-5000_MChi-2000_TuneCP5_13TeV-madgraph-pythia8/RunIISummer20UL17MiniAODv2-106X_mc2017_realistic_v9-v1/MINIAODSIM\n'
p434
sS'Suu7_chi2p5_HTHT'
p435
S'/SuuToChiChiToHTHTToJets_MSuu-7000_MChi-2500_TuneCP5_13TeV-madgraph-pythia8/RunIISummer20UL17MiniAODv2-106X_mc2017_realistic_v9-v2/MINIAODSIM\n'
p436
sS'Suu7_chi2_ZTZT'
p437
S'/SuuToChiChiToZTZTToJets_MSuu-7000_MChi-2000_TuneCP5_13TeV-madgraph-pythia8/RunIISummer20UL17MiniAODv2-106X_mc2017_realistic_v9-v3/MINIAODSIM\n'
p438
sS'Suu6_chi1_HTZT'
p439
S'/SuuToChiChiToHTZTToJets_MSuu-6000_MChi-1000_TuneCP5_13TeV-madgraph-pythia8/RunIISummer20UL17MiniAODv2-106X_mc2017_realistic_v9-v3/MINIAODSIM\n'
p440
sS'Suu8_chi1p5_ZTZT'
p441
S'/SuuToChiChiToZTZTToJets_MSuu-8000_MChi-1500_TuneCP5_13TeV-madgraph-pythia8/RunIISummer20UL17MiniAODv2-106X_mc2017_realistic_v9-v3/MINIAODSIM\n'
p442
sS'Suu7_chi3_HTZT'
p443
S'/SuuToChiChiToHTZTToJets_MSuu-7000_MChi-3000_TuneCP5_13TeV-madgraph-pythia8/RunIISummer20UL17MiniAODv2-106X_mc2017_realistic_v9-v3/MINIAODSIM\n'
p444
sS'Suu7_chi3_ZTZT'
p445
S'/SuuToChiChiToZTZTToJets_MSuu-7000_MChi-3000_TuneCP5_13TeV-madgraph-pythia8/RunIISummer20UL17MiniAODv2-106X_mc2017_realistic_v9-v3/MINIAODSIM\n'
p446
sS'Suu6_chi2p5_WBHT'
p447
S'/SuuToChiChiToWBHTToJets_MSuu-6000_MChi-2500_TuneCP5_13TeV-madgraph-pythia8/RunIISummer20UL17MiniAODv2-106X_mc2017_realistic_v9-v1/MINIAODSIM\n'
p448
sS'Suu7_chi1p5_ZTZT'
p449
S'/SuuToChiChiToZTZTToJets_MSuu-7000_MChi-1500_TuneCP5_13TeV-madgraph-pythia8/RunIISummer20UL17MiniAODv2-106X_mc2017_realistic_v9-v3/MINIAODSIM\n'
p450
sS'Suu8_chi3_WBZT'
p451
S'/SuuToChiChiToWBZTToJets_MSuu-8000_MChi-3000_TuneCP5_13TeV-madgraph-pythia8/RunIISummer20UL17MiniAODv2-106X_mc2017_realistic_v9-v3/MINIAODSIM\n'
p452
sS'Suu6_chi1_ZTZT'
p453
S'/SuuToChiChiToZTZTToJets_MSuu-6000_MChi-1000_TuneCP5_13TeV-madgraph-pythia8/RunIISummer20UL17MiniAODv2-106X_mc2017_realistic_v9-v1/MINIAODSIM\n'
p454
sS'Suu8_chi1p5_WBWB'
p455
S'/SuuToChiChiToWBWBToJets_MSuu-8000_MChi-1500_TuneCP5_13TeV-madgraph-pythia8/RunIISummer20UL17MiniAODv2-106X_mc2017_realistic_v9-v1/MINIAODSIM\n'
p456
sS'Suu6_chi2_WBZT'
p457
S'/SuuToChiChiToWBZTToJets_MSuu-6000_MChi-2000_TuneCP5_13TeV-madgraph-pythia8/RunIISummer20UL17MiniAODv2-106X_mc2017_realistic_v9-v1/MINIAODSIM\n'
p458
sS'Suu8_chi1p5_WBHT'
p459
S'/SuuToChiChiToWBHTToJets_MSuu-8000_MChi-1500_TuneCP5_13TeV-madgraph-pythia8/RunIISummer20UL17MiniAODv2-106X_mc2017_realistic_v9-v1/MINIAODSIM\n'
p460
ssS'2016'
p461
(dp462
S'Suu6_chi2_WBHT'
p463
S'/SuuToChiChiToWBHTToJets_MSuu-6000_MChi-2000_TuneCP5_13TeV-madgraph-pythia8/RunIISummer20UL16MiniAODv2-106X_mcRun2_asymptotic_v17-v1/MINIAODSIM\n'
p464
sS'Suu8_chi2p5_WBWB'
p465
S'/SuuToChiChiToWBWBToJets_MSuu-8000_MChi-2500_TuneCP5_13TeV-madgraph-pythia8/RunIISummer20UL16MiniAODv2-106X_mcRun2_asymptotic_v17-v1/MINIAODSIM\n'
p466
sS'Suu6_chi2_WBWB'
p467
S'/SuuToChiChiToWBWBToJets_MSuu-6000_MChi-2000_TuneCP5_13TeV-madgraph-pythia8/RunIISummer20UL16MiniAODv2-106X_mcRun2_asymptotic_v17-v2/MINIAODSIM\n'
p468
sS'Suu4_chi1p5_WBWB'
p469
S'/SuuToChiChiToWBWBToJets_MSuu-4000_MChi-1500_TuneCP5_13TeV-madgraph-pythia8/RunIISummer20UL16MiniAODv2-106X_mcRun2_asymptotic_v17-v3/MINIAODSIM\n'
p470
sS'Suu7_chi1_WBZT'
p471
S'/SuuToChiChiToWBZTToJets_MSuu-7000_MChi-1000_TuneCP5_13TeV-madgraph-pythia8/RunIISummer20UL16MiniAODv2-106X_mcRun2_asymptotic_v17-v1/MINIAODSIM\n'
p472
sS'Suu8_chi2p5_HTHT'
p473
S'/SuuToChiChiToHTHTToJets_MSuu-8000_MChi-2500_TuneCP5_13TeV-madgraph-pythia8/RunIISummer20UL16MiniAODv2-106X_mcRun2_asymptotic_v17-v2/MINIAODSIM\n'
p474
sS'Suu8_chi3_WBWB'
p475
S'/SuuToChiChiToWBWBToJets_MSuu-8000_MChi-3000_TuneCP5_13TeV-madgraph-pythia8/RunIISummer20UL16MiniAODv2-106X_mcRun2_asymptotic_v17-v2/MINIAODSIM\n'
p476
sS'Suu6_chi1p5_WBWB'
p477
S'/SuuToChiChiToWBWBToJets_MSuu-6000_MChi-1500_TuneCP5_13TeV-madgraph-pythia8/RunIISummer20UL16MiniAODv2-106X_mcRun2_asymptotic_v17-v1/MINIAODSIM\n'
p478
sS'Suu6_chi1_WBZT'
p479
S'/SuuToChiChiToWBZTToJets_MSuu-6000_MChi-1000_TuneCP5_13TeV-madgraph-pythia8/RunIISummer20UL16MiniAODv2-106X_mcRun2_asymptotic_v17-v1/MINIAODSIM\n'
p480
sS'Suu7_chi3_WBHT'
p481
S'/SuuToChiChiToWBHTToJets_MSuu-7000_MChi-3000_TuneCP5_13TeV-madgraph-pythia8/RunIISummer20UL16MiniAODv2-106X_mcRun2_asymptotic_v17-v1/MINIAODSIM\n'
p482
sS'Suu4_chi1p5_HTZT'
p483
S'/SuuToChiChiToHTZTToJets_MSuu-4000_MChi-1500_TuneCP5_13TeV-madgraph-pythia8/RunIISummer20UL16MiniAODv2-106X_mcRun2_asymptotic_v17-v3/MINIAODSIM\n'
p484
sS'Suu8_chi1p5_WBZT'
p485
S'/SuuToChiChiToWBZTToJets_MSuu-8000_MChi-1500_TuneCP5_13TeV-madgraph-pythia8/RunIISummer20UL16MiniAODv2-106X_mcRun2_asymptotic_v17-v1/MINIAODSIM\n'
p486
sS'Suu7_chi1_ZTZT'
p487
S'/SuuToChiChiToZTZTToJets_MSuu-7000_MChi-1000_TuneCP5_13TeV-madgraph-pythia8/RunIISummer20UL16MiniAODv2-106X_mcRun2_asymptotic_v17-v1/MINIAODSIM\n'
p488
sS'Suu8_chi1_HTHT'
p489
S'/SuuToChiChiToHTHTToJets_MSuu-8000_MChi-1000_TuneCP5_13TeV-madgraph-pythia8/RunIISummer20UL16MiniAODv2-106X_mcRun2_asymptotic_v17-v1/MINIAODSIM\n'
p490
sS'Suu7_chi2_HTZT'
p491
S'/SuuToChiChiToHTZTToJets_MSuu-7000_MChi-2000_TuneCP5_13TeV-madgraph-pythia8/RunIISummer20UL16MiniAODv2-106X_mcRun2_asymptotic_v17-v2/MINIAODSIM\n'
p492
sS'Suu7_chi1p5_WBZT'
p493
S'/SuuToChiChiToWBZTToJets_MSuu-7000_MChi-1500_TuneCP5_13TeV-madgraph-pythia8/RunIISummer20UL16MiniAODv2-106X_mcRun2_asymptotic_v17-v1/MINIAODSIM\n'
p494
sS'Suu8_chi1_WBZT'
p495
S'/SuuToChiChiToWBZTToJets_MSuu-8000_MChi-1000_TuneCP5_13TeV-madgraph-pythia8/RunIISummer20UL16MiniAODv2-106X_mcRun2_asymptotic_v17-v1/MINIAODSIM\n'
p496
sS'Suu5_chi2_ZTZT'
p497
S'/SuuToChiChiToZTZTToJets_MSuu-5000_MChi-2000_TuneCP5_13TeV-madgraph-pythia8/RunIISummer20UL16MiniAODv2-106X_mcRun2_asymptotic_v17-v3/MINIAODSIM\n'
p498
sS'Suu8_chi2_ZTZT'
p499
S'/SuuToChiChiToZTZTToJets_MSuu-8000_MChi-2000_TuneCP5_13TeV-madgraph-pythia8/RunIISummer20UL16MiniAODv2-106X_mcRun2_asymptotic_v17-v1/MINIAODSIM\n'
p500
sS'Suu8_chi2p5_HTZT'
p501
S'/SuuToChiChiToHTZTToJets_MSuu-8000_MChi-2500_TuneCP5_13TeV-madgraph-pythia8/RunIISummer20UL16MiniAODv2-106X_mcRun2_asymptotic_v17-v1/MINIAODSIM\n'
p502
sS'Suu4_chi1p5_HTHT'
p503
S'/SuuToChiChiToHTHTToJets_MSuu-4000_MChi-1500_TuneCP5_13TeV-madgraph-pythia8/RunIISummer20UL16MiniAODv2-106X_mcRun2_asymptotic_v17-v3/MINIAODSIM\n'
p504
sS'Suu8_chi1_WBHT'
p505
S'/SuuToChiChiToWBHTToJets_MSuu-8000_MChi-1000_TuneCP5_13TeV-madgraph-pythia8/RunIISummer20UL16MiniAODv2-106X_mcRun2_asymptotic_v17-v1/MINIAODSIM\n'
p506
sS'Suu8_chi3_WBHT'
p507
S'/SuuToChiChiToWBHTToJets_MSuu-8000_MChi-3000_TuneCP5_13TeV-madgraph-pythia8/RunIISummer20UL16MiniAODv2-106X_mcRun2_asymptotic_v17-v1/MINIAODSIM\n'
p508
sS'Suu7_chi1_HTHT'
p509
S'/SuuToChiChiToHTHTToJets_MSuu-7000_MChi-1000_TuneCP5_13TeV-madgraph-pythia8/RunIISummer20UL16MiniAODv2-106X_mcRun2_asymptotic_v17-v1/MINIAODSIM\n'
p510
sS'Suu7_chi2p5_WBHT'
p511
S'/SuuToChiChiToWBHTToJets_MSuu-7000_MChi-2500_TuneCP5_13TeV-madgraph-pythia8/RunIISummer20UL16MiniAODv2-106X_mcRun2_asymptotic_v17-v1/MINIAODSIM\n'
p512
sS'Suu7_chi3_HTHT'
p513
S'/SuuToChiChiToHTHTToJets_MSuu-7000_MChi-3000_TuneCP5_13TeV-madgraph-pythia8/RunIISummer20UL16MiniAODv2-106X_mcRun2_asymptotic_v17-v1/MINIAODSIM\n'
p514
sS'Suu4_chi1_HTZT'
p515
S'/SuuToChiChiToHTZTToJets_MSuu-4000_MChi-1000_TuneCP5_13TeV-madgraph-pythia8/RunIISummer20UL16MiniAODv2-106X_mcRun2_asymptotic_v17-v1/MINIAODSIM\n'
p516
sS'Suu6_chi1_HTHT'
p517
S'/SuuToChiChiToHTHTToJets_MSuu-6000_MChi-1000_TuneCP5_13TeV-madgraph-pythia8/RunIISummer20UL16MiniAODv2-106X_mcRun2_asymptotic_v17-v1/MINIAODSIM\n'
p518
sS'Suu4_chi1_ZTZT'
p519
S'/SuuToChiChiToZTZTToJets_MSuu-4000_MChi-1000_TuneCP5_13TeV-madgraph-pythia8/RunIISummer20UL16MiniAODv2-106X_mcRun2_asymptotic_v17-v1/MINIAODSIM\n'
p520
sS'Suu5_chi1p5_HTZT'
p521
S'/SuuToChiChiToHTZTToJets_MSuu-5000_MChi-1500_TuneCP5_13TeV-madgraph-pythia8/RunIISummer20UL16MiniAODv2-106X_mcRun2_asymptotic_v17-v2/MINIAODSIM\n'
p522
sS'Suu5_chi1p5_WBHT'
p523
S'/SuuToChiChiToWBHTToJets_MSuu-5000_MChi-1500_TuneCP5_13TeV-madgraph-pythia8/RunIISummer20UL16MiniAODv2-106X_mcRun2_asymptotic_v17-v1/MINIAODSIM\n'
p524
sS'Suu7_chi3_WBZT'
p525
S'/SuuToChiChiToWBZTToJets_MSuu-7000_MChi-3000_TuneCP5_13TeV-madgraph-pythia8/RunIISummer20UL16MiniAODv2-106X_mcRun2_asymptotic_v17-v1/MINIAODSIM\n'
p526
sS'Suu6_chi2_HTHT'
p527
S'/SuuToChiChiToHTHTToJets_MSuu-6000_MChi-2000_TuneCP5_13TeV-madgraph-pythia8/RunIISummer20UL16MiniAODv2-106X_mcRun2_asymptotic_v17-v2/MINIAODSIM\n'
p528
sS'Suu5_chi1p5_ZTZT'
p529
S'/SuuToChiChiToZTZTToJets_MSuu-5000_MChi-1500_TuneCP5_13TeV-madgraph-pythia8/RunIISummer20UL16MiniAODv2-106X_mcRun2_asymptotic_v17-v2/MINIAODSIM\n'
p530
sS'Suu6_chi1p5_ZTZT'
p531
S'/SuuToChiChiToZTZTToJets_MSuu-6000_MChi-1500_TuneCP5_13TeV-madgraph-pythia8/RunIISummer20UL16MiniAODv2-106X_mcRun2_asymptotic_v17-v1/MINIAODSIM\n'
p532
sS'Suu4_chi1p5_ZTZT'
p533
S'/SuuToChiChiToZTZTToJets_MSuu-4000_MChi-1500_TuneCP5_13TeV-madgraph-pythia8/RunIISummer20UL16MiniAODv2-106X_mcRun2_asymptotic_v17-v1/MINIAODSIM\n'
p534
sS'Suu8_chi2_HTZT'
p535
S'/SuuToChiChiToHTZTToJets_MSuu-8000_MChi-2000_TuneCP5_13TeV-madgraph-pythia8/RunIISummer20UL16MiniAODv2-106X_mcRun2_asymptotic_v17-v1/MINIAODSIM\n'
p536
sS'Suu8_chi3_HTZT'
p537
S'/SuuToChiChiToHTZTToJets_MSuu-8000_MChi-3000_TuneCP5_13TeV-madgraph-pythia8/RunIISummer20UL16MiniAODv2-106X_mcRun2_asymptotic_v17-v3/MINIAODSIM\n'
p538
sS'Suu6_chi2p5_ZTZT'
p539
S'/SuuToChiChiToZTZTToJets_MSuu-6000_MChi-2500_TuneCP5_13TeV-madgraph-pythia8/RunIISummer20UL16MiniAODv2-106X_mcRun2_asymptotic_v17-v3/MINIAODSIM\n'
p540
sS'Suu7_chi1_HTZT'
p541
S'/SuuToChiChiToHTZTToJets_MSuu-7000_MChi-1000_TuneCP5_13TeV-madgraph-pythia8/RunIISummer20UL16MiniAODv2-106X_mcRun2_asymptotic_v17-v1/MINIAODSIM\n'
p542
sS'Suu6_chi2p5_WBZT'
p543
S'/SuuToChiChiToWBZTToJets_MSuu-6000_MChi-2500_TuneCP5_13TeV-madgraph-pythia8/RunIISummer20UL16MiniAODv2-106X_mcRun2_asymptotic_v17-v1/MINIAODSIM\n'
p544
sS'Suu6_chi2_HTZT'
p545
S'/SuuToChiChiToHTZTToJets_MSuu-6200_MChi-1950_TuneCP5_13TeV-madgraph-pythia8/RunIISummer20UL16MiniAODv2-106X_mcRun2_asymptotic_v17-v2/MINIAODSIM\n'
p546
sS'Suu4_chi1p5_WBHT'
p547
S'/SuuToChiChiToWBHTToJets_MSuu-4000_MChi-1500_TuneCP5_13TeV-madgraph-pythia8/RunIISummer20UL16MiniAODv2-106X_mcRun2_asymptotic_v17-v1/MINIAODSIM\n'
p548
sS'Suu5_chi1p5_HTHT'
p549
S'/SuuToChiChiToHTHTToJets_MSuu-5000_MChi-1500_TuneCP5_13TeV-madgraph-pythia8/RunIISummer20UL16MiniAODv2-106X_mcRun2_asymptotic_v17-v2/MINIAODSIM\n'
p550
sS'Suu5_chi2_WBWB'
p551
S'/SuuToChiChiToWBWBToJets_MSuu-5000_MChi-2000_TuneCP5_13TeV-madgraph-pythia8/RunIISummer20UL16MiniAODv2-106X_mcRun2_asymptotic_v17-v3/MINIAODSIM\n'
p552
sS'Suu8_chi1_HTZT'
p553
S'/SuuToChiChiToHTZTToJets_MSuu-8000_MChi-1000_TuneCP5_13TeV-madgraph-pythia8/RunIISummer20UL16MiniAODv2-106X_mcRun2_asymptotic_v17-v1/MINIAODSIM\n'
p554
sS'Suu4_chi1_WBHT'
p555
S'/SuuToChiChiToWBHTToJets_MSuu-4000_MChi-1000_TuneCP5_13TeV-madgraph-pythia8/RunIISummer20UL16MiniAODv2-106X_mcRun2_asymptotic_v17-v1/MINIAODSIM\n'
p556
sS'Suu7_chi2p5_WBWB'
p557
S'/SuuToChiChiToWBWBToJets_MSuu-7000_MChi-2500_TuneCP5_13TeV-madgraph-pythia8/RunIISummer20UL16MiniAODv2-106X_mcRun2_asymptotic_v17-v1/MINIAODSIM\n'
p558
sS'Suu8_chi2_WBHT'
p559
S'/SuuToChiChiToWBHTToJets_MSuu-8000_MChi-2000_TuneCP5_13TeV-madgraph-pythia8/RunIISummer20UL16MiniAODv2-106X_mcRun2_asymptotic_v17-v1/MINIAODSIM\n'
p560
sS'Suu7_chi2p5_ZTZT'
p561
S'/SuuToChiChiToZTZTToJets_MSuu-7000_MChi-2500_TuneCP5_13TeV-madgraph-pythia8/RunIISummer20UL16MiniAODv2-106X_mcRun2_asymptotic_v17-v1/MINIAODSIM\n'
p562
sS'Suu5_chi1_WBZT'
p563
S'/SuuToChiChiToWBZTToJets_MSuu-5000_MChi-1000_TuneCP5_13TeV-madgraph-pythia8/RunIISummer20UL16MiniAODv2-106X_mcRun2_asymptotic_v17-v1/MINIAODSIM\n'
p564
sS'Suu5_chi1p5_WBWB'
p565
S'/SuuToChiChiToWBWBToJets_MSuu-5000_MChi-1500_TuneCP5_13TeV-madgraph-pythia8/RunIISummer20UL16MiniAODv2-106X_mcRun2_asymptotic_v17-v1/MINIAODSIM\n'
p566
sS'Suu8_chi1_ZTZT'
p567
S'/SuuToChiChiToZTZTToJets_MSuu-8000_MChi-1000_TuneCP5_13TeV-madgraph-pythia8/RunIISummer20UL16MiniAODv2-106X_mcRun2_asymptotic_v17-v1/MINIAODSIM\n'
p568
sS'Suu8_chi3_HTHT'
p569
S'/SuuToChiChiToHTHTToJets_MSuu-8000_MChi-3000_TuneCP5_13TeV-madgraph-pythia8/RunIISummer20UL16MiniAODv2-106X_mcRun2_asymptotic_v17-v3/MINIAODSIM\n'
p570
sS'Suu7_chi3_WBWB'
p571
S'/SuuToChiChiToWBWBToJets_MSuu-7000_MChi-3000_TuneCP5_13TeV-madgraph-pythia8/RunIISummer20UL16MiniAODv2-106X_mcRun2_asymptotic_v17-v3/MINIAODSIM\n'
p572
sS'Suu8_chi3_ZTZT'
p573
S'/SuuToChiChiToZTZTToJets_MSuu-8000_MChi-3000_TuneCP5_13TeV-madgraph-pythia8/RunIISummer20UL16MiniAODv2-106X_mcRun2_asymptotic_v17-v2/MINIAODSIM\n'
p574
sS'Suu6_chi2p5_HTZT'
p575
S'/SuuToChiChiToHTZTToJets_MSuu-6000_MChi-2500_TuneCP5_13TeV-madgraph-pythia8/RunIISummer20UL16MiniAODv2-106X_mcRun2_asymptotic_v17-v1/MINIAODSIM\n'
p576
sS'Suu7_chi1_WBWB'
p577
S'/SuuToChiChiToWBWBToJets_MSuu-7000_MChi-1000_TuneCP5_13TeV-madgraph-pythia8/RunIISummer20UL16MiniAODv2-106X_mcRun2_asymptotic_v17-v1/MINIAODSIM\n'
p578
sS'Suu7_chi2p5_WBZT'
p579
S'/SuuToChiChiToWBZTToJets_MSuu-7000_MChi-2500_TuneCP5_13TeV-madgraph-pythia8/RunIISummer20UL16MiniAODv2-106X_mcRun2_asymptotic_v17-v1/MINIAODSIM\n'
p580
sS'Suu7_chi1p5_HTHT'
p581
S'/SuuToChiChiToHTHTToJets_MSuu-7000_MChi-1500_TuneCP5_13TeV-madgraph-pythia8/RunIISummer20UL16MiniAODv2-106X_mcRun2_asymptotic_v17-v1/MINIAODSIM\n'
p582
sS'Suu5_chi1_HTZT'
p583
S'/SuuToChiChiToHTZTToJets_MSuu-5000_MChi-1000_TuneCP5_13TeV-madgraph-pythia8/RunIISummer20UL16MiniAODv2-106X_mcRun2_asymptotic_v17-v1/MINIAODSIM\n'
p584
sS'Suu6_chi1p5_HTZT'
p585
S'/SuuToChiChiToHTZTToJets_MSuu-6000_MChi-1500_TuneCP5_13TeV-madgraph-pythia8/RunIISummer20UL16MiniAODv2-106X_mcRun2_asymptotic_v17-v1/MINIAODSIM\n'
p586
sS'Suu8_chi2p5_WBZT'
p587
S'/SuuToChiChiToWBZTToJets_MSuu-8000_MChi-2500_TuneCP5_13TeV-madgraph-pythia8/RunIISummer20UL16MiniAODv2-106X_mcRun2_asymptotic_v17-v1/MINIAODSIM\n'
p588
sS'Suu5_chi1_WBHT'
p589
S'/SuuToChiChiToWBHTToJets_MSuu-5000_MChi-1000_TuneCP5_13TeV-madgraph-pythia8/RunIISummer20UL16MiniAODv2-106X_mcRun2_asymptotic_v17-v1/MINIAODSIM\n'
p590
sS'Suu7_chi1p5_WBWB'
p591
S'/SuuToChiChiToWBWBToJets_MSuu-7000_MChi-1500_TuneCP5_13TeV-madgraph-pythia8/RunIISummer20UL16MiniAODv2-106X_mcRun2_asymptotic_v17-v1/MINIAODSIM\n'
p592
sS'Suu8_chi1p5_HTHT'
p593
S'/SuuToChiChiToHTHTToJets_MSuu-8000_MChi-1500_TuneCP5_13TeV-madgraph-pythia8/RunIISummer20UL16MiniAODv2-106X_mcRun2_asymptotic_v17-v1/MINIAODSIM\n'
p594
sS'Suu4_chi1_WBZT'
p595
S'/SuuToChiChiToWBZTToJets_MSuu-4000_MChi-1000_TuneCP5_13TeV-madgraph-pythia8/RunIISummer20UL16MiniAODv2-106X_mcRun2_asymptotic_v17-v1/MINIAODSIM\n'
p596
sS'Suu6_chi2p5_HTHT'
p597
S'/SuuToChiChiToHTHTToJets_MSuu-6000_MChi-2500_TuneCP5_13TeV-madgraph-pythia8/RunIISummer20UL16MiniAODv2-106X_mcRun2_asymptotic_v17-v1/MINIAODSIM\n'
p598
sS'Suu5_chi2_HTHT'
p599
S'/SuuToChiChiToHTHTToJets_MSuu-5000_MChi-2000_TuneCP5_13TeV-madgraph-pythia8/RunIISummer20UL16MiniAODv2-106X_mcRun2_asymptotic_v17-v3/MINIAODSIM\n'
p600
sS'Suu6_chi1p5_WBZT'
p601
S'/SuuToChiChiToWBZTToJets_MSuu-6000_MChi-1500_TuneCP5_13TeV-madgraph-pythia8/RunIISummer20UL16MiniAODv2-106X_mcRun2_asymptotic_v17-v1/MINIAODSIM\n'
p602
sS'Suu8_chi1_WBWB'
p603
S'/SuuToChiChiToWBWBToJets_MSuu-8000_MChi-1000_TuneCP5_13TeV-madgraph-pythia8/RunIISummer20UL16MiniAODv2-106X_mcRun2_asymptotic_v17-v1/MINIAODSIM\n'
p604
sS'Suu6_chi1_WBWB'
p605
S'/SuuToChiChiToWBWBToJets_MSuu-6000_MChi-1000_TuneCP5_13TeV-madgraph-pythia8/RunIISummer20UL16MiniAODv2-106X_mcRun2_asymptotic_v17-v1/MINIAODSIM\n'
p606
sS'Suu8_chi2_WBWB'
p607
S'/SuuToChiChiToWBWBToJets_MSuu-8000_MChi-2000_TuneCP5_13TeV-madgraph-pythia8/RunIISummer20UL16MiniAODv2-106X_mcRun2_asymptotic_v17-v1/MINIAODSIM\n'
p608
sS'Suu6_chi2_ZTZT'
p609
S'/SuuToChiChiToZTZTToJets_MSuu-6000_MChi-2000_TuneCP5_13TeV-madgraph-pythia8/RunIISummer20UL16MiniAODv2-106X_mcRun2_asymptotic_v17-v2/MINIAODSIM\n'
p610
sS'Suu6_chi2p5_WBWB'
p611
S'/SuuToChiChiToWBWBToJets_MSuu-6000_MChi-2500_TuneCP5_13TeV-madgraph-pythia8/RunIISummer20UL16MiniAODv2-106X_mcRun2_asymptotic_v17-v3/MINIAODSIM\n'
p612
sS'Suu6_chi1_WBHT'
p613
S'/SuuToChiChiToWBHTToJets_MSuu-6000_MChi-1000_TuneCP5_13TeV-madgraph-pythia8/RunIISummer20UL16MiniAODv2-106X_mcRun2_asymptotic_v17-v1/MINIAODSIM\n'
p614
sS'Suu7_chi2p5_HTZT'
p615
S'/SuuToChiChiToHTZTToJets_MSuu-7000_MChi-2500_TuneCP5_13TeV-madgraph-pythia8/RunIISummer20UL16MiniAODv2-106X_mcRun2_asymptotic_v17-v1/MINIAODSIM\n'
p616
sS'Suu8_chi2p5_ZTZT'
p617
S'/SuuToChiChiToZTZTToJets_MSuu-8000_MChi-2500_TuneCP5_13TeV-madgraph-pythia8/RunIISummer20UL16MiniAODv2-106X_mcRun2_asymptotic_v17-v2/MINIAODSIM\n'
p618
sS'Suu5_chi2_WBHT'
p619
S'/SuuToChiChiToWBHTToJets_MSuu-5000_MChi-2000_TuneCP5_13TeV-madgraph-pythia8/RunIISummer20UL16MiniAODv2-106X_mcRun2_asymptotic_v17-v1/MINIAODSIM\n'
p620
sS'Suu8_chi2_HTHT'
p621
S'/SuuToChiChiToHTHTToJets_MSuu-8000_MChi-2000_TuneCP5_13TeV-madgraph-pythia8/RunIISummer20UL16MiniAODv2-106X_mcRun2_asymptotic_v17-v1/MINIAODSIM\n'
p622
sS'Suu7_chi2_HTHT'
p623
S'/SuuToChiChiToHTHTToJets_MSuu-7000_MChi-2000_TuneCP5_13TeV-madgraph-pythia8/RunIISummer20UL16MiniAODv2-106X_mcRun2_asymptotic_v17-v1/MINIAODSIM\n'
p624
sS'Suu7_chi2_WBZT'
p625
S'/SuuToChiChiToWBZTToJets_MSuu-7000_MChi-2000_TuneCP5_13TeV-madgraph-pythia8/RunIISummer20UL16MiniAODv2-106X_mcRun2_asymptotic_v17-v3/MINIAODSIM\n'
p626
sS'Suu4_chi1p5_WBZT'
p627
S'/SuuToChiChiToWBZTToJets_MSuu-4000_MChi-1500_TuneCP5_13TeV-madgraph-pythia8/RunIISummer20UL16MiniAODv2-106X_mcRun2_asymptotic_v17-v1/MINIAODSIM\n'
p628
sS'Suu8_chi1p5_HTZT'
p629
S'/SuuToChiChiToHTZTToJets_MSuu-8000_MChi-1500_TuneCP5_13TeV-madgraph-pythia8/RunIISummer20UL16MiniAODv2-106X_mcRun2_asymptotic_v17-v1/MINIAODSIM\n'
p630
sS'Suu7_chi1p5_WBHT'
p631
S'/SuuToChiChiToWBHTToJets_MSuu-7000_MChi-1500_TuneCP5_13TeV-madgraph-pythia8/RunIISummer20UL16MiniAODv2-106X_mcRun2_asymptotic_v17-v1/MINIAODSIM\n'
p632
sS'Suu4_chi1_HTHT'
p633
S'/SuuToChiChiToHTHTToJets_MSuu-4000_MChi-1000_TuneCP5_13TeV-madgraph-pythia8/RunIISummer20UL16MiniAODv2-106X_mcRun2_asymptotic_v17-v1/MINIAODSIM\n'
p634
sS'Suu7_chi2_WBHT'
p635
S'/SuuToChiChiToWBHTToJets_MSuu-7000_MChi-2000_TuneCP5_13TeV-madgraph-pythia8/RunIISummer20UL16MiniAODv2-106X_mcRun2_asymptotic_v17-v1/MINIAODSIM\n'
p636
sS'Suu6_chi1p5_HTHT'
p637
S'/SuuToChiChiToHTHTToJets_MSuu-6000_MChi-1500_TuneCP5_13TeV-madgraph-pythia8/RunIISummer20UL16MiniAODv2-106X_mcRun2_asymptotic_v17-v1/MINIAODSIM\n'
p638
sS'Suu6_chi1p5_WBHT'
p639
S'/SuuToChiChiToWBHTToJets_MSuu-6000_MChi-1500_TuneCP5_13TeV-madgraph-pythia8/RunIISummer20UL16MiniAODv2-106X_mcRun2_asymptotic_v17-v1/MINIAODSIM\n'
p640
sS'Suu7_chi2_WBWB'
p641
S'/SuuToChiChiToWBWBToJets_MSuu-7000_MChi-2000_TuneCP5_13TeV-madgraph-pythia8/RunIISummer20UL16MiniAODv2-106X_mcRun2_asymptotic_v17-v1/MINIAODSIM\n'
p642
sS'Suu8_chi2p5_WBHT'
p643
S'/SuuToChiChiToWBHTToJets_MSuu-8000_MChi-2500_TuneCP5_13TeV-madgraph-pythia8/RunIISummer20UL16MiniAODv2-106X_mcRun2_asymptotic_v17-v1/MINIAODSIM\n'
p644
sS'Suu7_chi1p5_HTZT'
p645
S'/SuuToChiChiToHTZTToJets_MSuu-7000_MChi-1500_TuneCP5_13TeV-madgraph-pythia8/RunIISummer20UL16MiniAODv2-106X_mcRun2_asymptotic_v17-v1/MINIAODSIM\n'
p646
sS'Suu4_chi1_WBWB'
p647
S'/SuuToChiChiToWBWBToJets_MSuu-4000_MChi-1000_TuneCP5_13TeV-madgraph-pythia8/RunIISummer20UL16MiniAODv2-106X_mcRun2_asymptotic_v17-v1/MINIAODSIM\n'
p648
sS'Suu5_chi2_HTZT'
p649
S'/SuuToChiChiToHTZTToJets_MSuu-5000_MChi-2000_TuneCP5_13TeV-madgraph-pythia8/RunIISummer20UL16MiniAODv2-106X_mcRun2_asymptotic_v17-v2/MINIAODSIM\n'
p650
sS'Suu5_chi1_HTHT'
p651
S'/SuuToChiChiToHTHTToJets_MSuu-5000_MChi-1000_TuneCP5_13TeV-madgraph-pythia8/RunIISummer20UL16MiniAODv2-106X_mcRun2_asymptotic_v17-v1/MINIAODSIM\n'
p652
sS'Suu8_chi2_WBZT'
p653
S'/SuuToChiChiToWBZTToJets_MSuu-8000_MChi-2000_TuneCP5_13TeV-madgraph-pythia8/RunIISummer20UL16MiniAODv2-106X_mcRun2_asymptotic_v17-v1/MINIAODSIM\n'
p654
sS'Suu5_chi1p5_WBZT'
p655
S'/SuuToChiChiToWBZTToJets_MSuu-5000_MChi-1500_TuneCP5_13TeV-madgraph-pythia8/RunIISummer20UL16MiniAODv2-106X_mcRun2_asymptotic_v17-v1/MINIAODSIM\n'
p656
sS'Suu5_chi1_ZTZT'
p657
S'/SuuToChiChiToZTZTToJets_MSuu-5000_MChi-1000_TuneCP5_13TeV-madgraph-pythia8/RunIISummer20UL16MiniAODv2-106X_mcRun2_asymptotic_v17-v1/MINIAODSIM\n'
p658
sS'Suu7_chi1_WBHT'
p659
S'/SuuToChiChiToWBHTToJets_MSuu-7000_MChi-1000_TuneCP5_13TeV-madgraph-pythia8/RunIISummer20UL16MiniAODv2-106X_mcRun2_asymptotic_v17-v1/MINIAODSIM\n'
p660
sS'Suu5_chi1_WBWB'
p661
S'/SuuToChiChiToWBWBToJets_MSuu-5000_MChi-1000_TuneCP5_13TeV-madgraph-pythia8/RunIISummer20UL16MiniAODv2-106X_mcRun2_asymptotic_v17-v1/MINIAODSIM\n'
p662
sS'Suu5_chi2_WBZT'
p663
S'/SuuToChiChiToWBZTToJets_MSuu-5000_MChi-2000_TuneCP5_13TeV-madgraph-pythia8/RunIISummer20UL16MiniAODv2-106X_mcRun2_asymptotic_v17-v1/MINIAODSIM\n'
p664
sS'Suu7_chi2p5_HTHT'
p665
S'/SuuToChiChiToHTHTToJets_MSuu-7000_MChi-2500_TuneCP5_13TeV-madgraph-pythia8/RunIISummer20UL16MiniAODv2-106X_mcRun2_asymptotic_v17-v1/MINIAODSIM\n'
p666
sS'Suu7_chi2_ZTZT'
p667
S'/SuuToChiChiToZTZTToJets_MSuu-7000_MChi-2000_TuneCP5_13TeV-madgraph-pythia8/RunIISummer20UL16MiniAODv2-106X_mcRun2_asymptotic_v17-v1/MINIAODSIM\n'
p668
sS'Suu6_chi1_HTZT'
p669
S'/SuuToChiChiToHTZTToJets_MSuu-6000_MChi-1000_TuneCP5_13TeV-madgraph-pythia8/RunIISummer20UL16MiniAODv2-106X_mcRun2_asymptotic_v17-v1/MINIAODSIM\n'
p670
sS'Suu8_chi1p5_ZTZT'
p671
S'/SuuToChiChiToZTZTToJets_MSuu-8000_MChi-1500_TuneCP5_13TeV-madgraph-pythia8/RunIISummer20UL16MiniAODv2-106X_mcRun2_asymptotic_v17-v1/MINIAODSIM\n'
p672
sS'Suu7_chi3_HTZT'
p673
S'/SuuToChiChiToHTZTToJets_MSuu-7000_MChi-3000_TuneCP5_13TeV-madgraph-pythia8/RunIISummer20UL16MiniAODv2-106X_mcRun2_asymptotic_v17-v3/MINIAODSIM\n'
p674
sS'Suu7_chi3_ZTZT'
p675
S'/SuuToChiChiToZTZTToJets_MSuu-7000_MChi-3000_TuneCP5_13TeV-madgraph-pythia8/RunIISummer20UL16MiniAODv2-106X_mcRun2_asymptotic_v17-v2/MINIAODSIM\n'
p676
sS'Suu6_chi2p5_WBHT'
p677
S'/SuuToChiChiToWBHTToJets_MSuu-6000_MChi-2500_TuneCP5_13TeV-madgraph-pythia8/RunIISummer20UL16MiniAODv2-106X_mcRun2_asymptotic_v17-v1/MINIAODSIM\n'
p678
sS'Suu7_chi1p5_ZTZT'
p679
S'/SuuToChiChiToZTZTToJets_MSuu-7000_MChi-1500_TuneCP5_13TeV-madgraph-pythia8/RunIISummer20UL16MiniAODv2-106X_mcRun2_asymptotic_v17-v1/MINIAODSIM\n'
p680
sS'Suu8_chi3_WBZT'
p681
S'/SuuToChiChiToWBZTToJets_MSuu-8000_MChi-3000_TuneCP5_13TeV-madgraph-pythia8/RunIISummer20UL16MiniAODv2-106X_mcRun2_asymptotic_v17-v1/MINIAODSIM\n'
p682
sS'Suu6_chi1_ZTZT'
p683
S'/SuuToChiChiToZTZTToJets_MSuu-6000_MChi-1000_TuneCP5_13TeV-madgraph-pythia8/RunIISummer20UL16MiniAODv2-106X_mcRun2_asymptotic_v17-v1/MINIAODSIM\n'
p684
sS'Suu8_chi1p5_WBWB'
p685
S'/SuuToChiChiToWBWBToJets_MSuu-8000_MChi-1500_TuneCP5_13TeV-madgraph-pythia8/RunIISummer20UL16MiniAODv2-106X_mcRun2_asymptotic_v17-v1/MINIAODSIM\n'
p686
sS'Suu6_chi2_WBZT'
p687
S'/SuuToChiChiToWBZTToJets_MSuu-6000_MChi-2000_TuneCP5_13TeV-madgraph-pythia8/RunIISummer20UL16MiniAODv2-106X_mcRun2_asymptotic_v17-v1/MINIAODSIM\n'
p688
sS'Suu8_chi1p5_WBHT'
p689
S'/SuuToChiChiToWBHTToJets_MSuu-8000_MChi-1500_TuneCP5_13TeV-madgraph-pythia8/RunIISummer20UL16MiniAODv2-106X_mcRun2_asymptotic_v17-v1/MINIAODSIM\n'
p690
ssS'2018'
p691
(dp692
S'Suu6_chi2_WBHT'
p693
S'/SuuToChiChiToWBHTToJets_MSuu-6000_MChi-2000_TuneCP5_13TeV-madgraph-pythia8/RunIISummer20UL18MiniAODv2-106X_upgrade2018_realistic_v16_L1v1-v1/MINIAODSIM\n'
p694
sS'Suu8_chi2p5_WBWB'
p695
S'/SuuToChiChiToWBWBToJets_MSuu-8000_MChi-2500_TuneCP5_13TeV-madgraph-pythia8/RunIISummer20UL18MiniAODv2-106X_upgrade2018_realistic_v16_L1v1-v1/MINIAODSIM\n'
p696
sS'Suu6_chi2_WBWB'
p697
S'/SuuToChiChiToWBWBToJets_MSuu-6000_MChi-2000_TuneCP5_13TeV-madgraph-pythia8/RunIISummer20UL18MiniAODv2-106X_upgrade2018_realistic_v16_L1v1-v2/MINIAODSIM\n'
p698
sS'Suu4_chi1p5_WBWB'
p699
S'/SuuToChiChiToWBWBToJets_MSuu-4000_MChi-1500_TuneCP5_13TeV-madgraph-pythia8/RunIISummer20UL18MiniAODv2-106X_upgrade2018_realistic_v16_L1v1-v3/MINIAODSIM\n'
p700
sS'Suu7_chi1_WBZT'
p701
S'/SuuToChiChiToWBZTToJets_MSuu-7000_MChi-1000_TuneCP5_13TeV-madgraph-pythia8/RunIISummer20UL18MiniAODv2-106X_upgrade2018_realistic_v16_L1v1-v1/MINIAODSIM\n'
p702
sS'Suu8_chi2p5_HTHT'
p703
S'/SuuToChiChiToHTHTToJets_MSuu-8000_MChi-2500_TuneCP5_13TeV-madgraph-pythia8/RunIISummer20UL18MiniAODv2-106X_upgrade2018_realistic_v16_L1v1-v1/MINIAODSIM\n'
p704
sS'Suu8_chi3_WBWB'
p705
S'/SuuToChiChiToWBWBToJets_MSuu-8000_MChi-3000_TuneCP5_13TeV-madgraph-pythia8/RunIISummer20UL18MiniAODv2-106X_upgrade2018_realistic_v16_L1v1-v2/MINIAODSIM\n'
p706
sS'Suu6_chi1p5_WBWB'
p707
S'/SuuToChiChiToWBWBToJets_MSuu-6000_MChi-1500_TuneCP5_13TeV-madgraph-pythia8/RunIISummer20UL18MiniAODv2-106X_upgrade2018_realistic_v16_L1v1-v3/MINIAODSIM\n'
p708
sS'Suu6_chi1_WBZT'
p709
S'/SuuToChiChiToWBZTToJets_MSuu-6000_MChi-1000_TuneCP5_13TeV-madgraph-pythia8/RunIISummer20UL18MiniAODv2-106X_upgrade2018_realistic_v16_L1v1-v3/MINIAODSIM\n'
p710
sS'Suu7_chi3_WBHT'
p711
S'/SuuToChiChiToWBHTToJets_MSuu-7000_MChi-3000_TuneCP5_13TeV-madgraph-pythia8/RunIISummer20UL18MiniAODv2-106X_upgrade2018_realistic_v16_L1v1-v1/MINIAODSIM\n'
p712
sS'Suu4_chi1p5_HTZT'
p713
S'/SuuToChiChiToHTZTToJets_MSuu-4000_MChi-1500_TuneCP5_13TeV-madgraph-pythia8/RunIISummer20UL18MiniAODv2-106X_upgrade2018_realistic_v16_L1v1-v3/MINIAODSIM\n'
p714
sS'Suu8_chi1p5_WBZT'
p715
S'/SuuToChiChiToWBZTToJets_MSuu-8000_MChi-1500_TuneCP5_13TeV-madgraph-pythia8/RunIISummer20UL18MiniAODv2-106X_upgrade2018_realistic_v16_L1v1-v1/MINIAODSIM\n'
p716
sS'Suu7_chi1_ZTZT'
p717
S'/SuuToChiChiToZTZTToJets_MSuu-7000_MChi-1000_TuneCP5_13TeV-madgraph-pythia8/RunIISummer20UL18MiniAODv2-106X_upgrade2018_realistic_v16_L1v1-v1/MINIAODSIM\n'
p718
sS'Suu8_chi1_HTHT'
p719
S'/SuuToChiChiToHTHTToJets_MSuu-8000_MChi-1000_TuneCP5_13TeV-madgraph-pythia8/RunIISummer20UL18MiniAODv2-106X_upgrade2018_realistic_v16_L1v1-v1/MINIAODSIM\n'
p720
sS'Suu7_chi2_HTZT'
p721
S'/SuuToChiChiToHTZTToJets_MSuu-7000_MChi-2000_TuneCP5_13TeV-madgraph-pythia8/RunIISummer20UL18MiniAODv2-106X_upgrade2018_realistic_v16_L1v1-v2/MINIAODSIM\n'
p722
sS'Suu7_chi1p5_WBZT'
p723
S'/SuuToChiChiToWBZTToJets_MSuu-7000_MChi-1500_TuneCP5_13TeV-madgraph-pythia8/RunIISummer20UL18MiniAODv2-106X_upgrade2018_realistic_v16_L1v1-v3/MINIAODSIM\n'
p724
sS'Suu8_chi1_WBZT'
p725
S'/SuuToChiChiToWBZTToJets_MSuu-8000_MChi-1000_TuneCP5_13TeV-madgraph-pythia8/RunIISummer20UL18MiniAODv2-106X_upgrade2018_realistic_v16_L1v1-v3/MINIAODSIM\n'
p726
sS'Suu5_chi2_ZTZT'
p727
S'/SuuToChiChiToZTZTToJets_MSuu-5000_MChi-2000_TuneCP5_13TeV-madgraph-pythia8/RunIISummer20UL18MiniAODv2-106X_upgrade2018_realistic_v16_L1v1-v2/MINIAODSIM\n'
p728
sS'Suu8_chi2_ZTZT'
p729
S'/SuuToChiChiToZTZTToJets_MSuu-8000_MChi-2000_TuneCP5_13TeV-madgraph-pythia8/RunIISummer20UL18MiniAODv2-106X_upgrade2018_realistic_v16_L1v1-v3/MINIAODSIM\n'
p730
sS'Suu8_chi2p5_HTZT'
p731
S'/SuuToChiChiToHTZTToJets_MSuu-8000_MChi-2500_TuneCP5_13TeV-madgraph-pythia8/RunIISummer20UL18MiniAODv2-106X_upgrade2018_realistic_v16_L1v1-v2/MINIAODSIM\n'
p732
sS'Suu4_chi1p5_HTHT'
p733
S'/SuuToChiChiToHTHTToJets_MSuu-4000_MChi-1500_TuneCP5_13TeV-madgraph-pythia8/RunIISummer20UL18MiniAODv2-106X_upgrade2018_realistic_v16_L1v1-v3/MINIAODSIM\n'
p734
sS'Suu8_chi1_WBHT'
p735
S'/SuuToChiChiToWBHTToJets_MSuu-8000_MChi-1000_TuneCP5_13TeV-madgraph-pythia8/RunIISummer20UL18MiniAODv2-106X_upgrade2018_realistic_v16_L1v1-v1/MINIAODSIM\n'
p736
sS'Suu8_chi3_WBHT'
p737
S'/SuuToChiChiToWBHTToJets_MSuu-8000_MChi-3000_TuneCP5_13TeV-madgraph-pythia8/RunIISummer20UL18MiniAODv2-106X_upgrade2018_realistic_v16_L1v1-v3/MINIAODSIM\n'
p738
sS'Suu7_chi1_HTHT'
p739
S'/SuuToChiChiToHTHTToJets_MSuu-7000_MChi-1000_TuneCP5_13TeV-madgraph-pythia8/RunIISummer20UL18MiniAODv2-106X_upgrade2018_realistic_v16_L1v1-v3/MINIAODSIM\n'
p740
sS'Suu7_chi2p5_WBHT'
p741
S'/SuuToChiChiToWBHTToJets_MSuu-7000_MChi-2500_TuneCP5_13TeV-madgraph-pythia8/RunIISummer20UL18MiniAODv2-106X_upgrade2018_realistic_v16_L1v1-v1/MINIAODSIM\n'
p742
sS'Suu7_chi3_HTHT'
p743
S'/SuuToChiChiToHTHTToJets_MSuu-7000_MChi-3000_TuneCP5_13TeV-madgraph-pythia8/RunIISummer20UL18MiniAODv2-106X_upgrade2018_realistic_v16_L1v1-v2/MINIAODSIM\n'
p744
sS'Suu4_chi1_HTZT'
p745
S'/SuuToChiChiToHTZTToJets_MSuu-4000_MChi-1000_TuneCP5_13TeV-madgraph-pythia8/RunIISummer20UL18MiniAODv2-106X_upgrade2018_realistic_v16_L1v1-v1/MINIAODSIM\n'
p746
sS'Suu6_chi1_HTHT'
p747
S'/SuuToChiChiToHTHTToJets_MSuu-6000_MChi-1000_TuneCP5_13TeV-madgraph-pythia8/RunIISummer20UL18MiniAODv2-106X_upgrade2018_realistic_v16_L1v1-v3/MINIAODSIM\n'
p748
sS'Suu4_chi1_ZTZT'
p749
S'/SuuToChiChiToZTZTToJets_MSuu-4000_MChi-1000_TuneCP5_13TeV-madgraph-pythia8/RunIISummer20UL18MiniAODv2-106X_upgrade2018_realistic_v16_L1v1-v3/MINIAODSIM\n'
p750
sS'Suu5_chi1p5_HTZT'
p751
S'/SuuToChiChiToHTZTToJets_MSuu-5000_MChi-1500_TuneCP5_13TeV-madgraph-pythia8/RunIISummer20UL18MiniAODv2-106X_upgrade2018_realistic_v16_L1v1-v3/MINIAODSIM\n'
p752
sS'Suu5_chi1p5_WBHT'
p753
S'/SuuToChiChiToWBHTToJets_MSuu-5000_MChi-1500_TuneCP5_13TeV-madgraph-pythia8/RunIISummer20UL18MiniAODv2-106X_upgrade2018_realistic_v16_L1v1-v3/MINIAODSIM\n'
p754
sS'Suu7_chi3_WBZT'
p755
S'/SuuToChiChiToWBZTToJets_MSuu-7000_MChi-3000_TuneCP5_13TeV-madgraph-pythia8/RunIISummer20UL18MiniAODv2-106X_upgrade2018_realistic_v16_L1v1-v1/MINIAODSIM\n'
p756
sS'Suu6_chi2_HTHT'
p757
S'/SuuToChiChiToHTHTToJets_MSuu-6000_MChi-2000_TuneCP5_13TeV-madgraph-pythia8/RunIISummer20UL18MiniAODv2-106X_upgrade2018_realistic_v16_L1v1-v2/MINIAODSIM\n'
p758
sS'Suu5_chi1p5_ZTZT'
p759
S'/SuuToChiChiToZTZTToJets_MSuu-5000_MChi-1500_TuneCP5_13TeV-madgraph-pythia8/RunIISummer20UL18MiniAODv2-106X_upgrade2018_realistic_v16_L1v1-v2/MINIAODSIM\n'
p760
sS'Suu6_chi1p5_ZTZT'
p761
S'/SuuToChiChiToZTZTToJets_MSuu-6000_MChi-1500_TuneCP5_13TeV-madgraph-pythia8/RunIISummer20UL18MiniAODv2-106X_upgrade2018_realistic_v16_L1v1-v1/MINIAODSIM\n'
p762
sS'Suu4_chi1p5_ZTZT'
p763
S'/SuuToChiChiToZTZTToJets_MSuu-4000_MChi-1500_TuneCP5_13TeV-madgraph-pythia8/RunIISummer20UL18MiniAODv2-106X_upgrade2018_realistic_v16_L1v1-v3/MINIAODSIM\n'
p764
sS'Suu8_chi2_HTZT'
p765
S'/SuuToChiChiToHTZTToJets_MSuu-8000_MChi-2000_TuneCP5_13TeV-madgraph-pythia8/RunIISummer20UL18MiniAODv2-106X_upgrade2018_realistic_v16_L1v1-v3/MINIAODSIM\n'
p766
sS'Suu8_chi3_HTZT'
p767
S'/SuuToChiChiToHTZTToJets_MSuu-8000_MChi-3000_TuneCP5_13TeV-madgraph-pythia8/RunIISummer20UL18MiniAODv2-106X_upgrade2018_realistic_v16_L1v1-v3/MINIAODSIM\n'
p768
sS'Suu6_chi2p5_ZTZT'
p769
S'/SuuToChiChiToZTZTToJets_MSuu-6000_MChi-2500_TuneCP5_13TeV-madgraph-pythia8/RunIISummer20UL18MiniAODv2-106X_upgrade2018_realistic_v16_L1v1-v3/MINIAODSIM\n'
p770
sS'Suu7_chi1_HTZT'
p771
S'/SuuToChiChiToHTZTToJets_MSuu-7000_MChi-1000_TuneCP5_13TeV-madgraph-pythia8/RunIISummer20UL18MiniAODv2-106X_upgrade2018_realistic_v16_L1v1-v3/MINIAODSIM\n'
p772
sS'Suu6_chi2p5_WBZT'
p773
S'/SuuToChiChiToWBZTToJets_MSuu-6000_MChi-2500_TuneCP5_13TeV-madgraph-pythia8/RunIISummer20UL18MiniAODv2-106X_upgrade2018_realistic_v16_L1v1-v1/MINIAODSIM\n'
p774
sS'Suu6_chi2_HTZT'
p775
S'/SuuToChiChiToHTZTToJets_MSuu-6200_MChi-1950_TuneCP5_13TeV-madgraph-pythia8/RunIISummer20UL18MiniAODv2-106X_upgrade2018_realistic_v16_L1v1-v2/MINIAODSIM\n'
p776
sS'Suu4_chi1p5_WBHT'
p777
S'/SuuToChiChiToWBHTToJets_MSuu-4000_MChi-1500_TuneCP5_13TeV-madgraph-pythia8/RunIISummer20UL18MiniAODv2-106X_upgrade2018_realistic_v16_L1v1-v3/MINIAODSIM\n'
p778
sS'Suu5_chi1p5_HTHT'
p779
S'/SuuToChiChiToHTHTToJets_MSuu-5000_MChi-1500_TuneCP5_13TeV-madgraph-pythia8/RunIISummer20UL18MiniAODv2-106X_upgrade2018_realistic_v16_L1v1-v3/MINIAODSIM\n'
p780
sS'Suu5_chi2_WBWB'
p781
S'/SuuToChiChiToWBWBToJets_MSuu-5000_MChi-2000_TuneCP5_13TeV-madgraph-pythia8/RunIISummer20UL18MiniAODv2-106X_upgrade2018_realistic_v16_L1v1-v3/MINIAODSIM\n'
p782
sS'Suu8_chi1_HTZT'
p783
S'/SuuToChiChiToHTZTToJets_MSuu-8000_MChi-1000_TuneCP5_13TeV-madgraph-pythia8/RunIISummer20UL18MiniAODv2-106X_upgrade2018_realistic_v16_L1v1-v1/MINIAODSIM\n'
p784
sS'Suu4_chi1_WBHT'
p785
S'/SuuToChiChiToWBHTToJets_MSuu-4000_MChi-1000_TuneCP5_13TeV-madgraph-pythia8/RunIISummer20UL18MiniAODv2-106X_upgrade2018_realistic_v16_L1v1-v1/MINIAODSIM\n'
p786
sS'Suu7_chi2p5_WBWB'
p787
S'/SuuToChiChiToWBWBToJets_MSuu-7000_MChi-2500_TuneCP5_13TeV-madgraph-pythia8/RunIISummer20UL18MiniAODv2-106X_upgrade2018_realistic_v16_L1v1-v3/MINIAODSIM\n'
p788
sS'Suu8_chi2_WBHT'
p789
S'/SuuToChiChiToWBHTToJets_MSuu-8000_MChi-2000_TuneCP5_13TeV-madgraph-pythia8/RunIISummer20UL18MiniAODv2-106X_upgrade2018_realistic_v16_L1v1-v1/MINIAODSIM\n'
p790
sS'Suu7_chi2p5_ZTZT'
p791
S'/SuuToChiChiToZTZTToJets_MSuu-7000_MChi-2500_TuneCP5_13TeV-madgraph-pythia8/RunIISummer20UL18MiniAODv2-106X_upgrade2018_realistic_v16_L1v1-v1/MINIAODSIM\n'
p792
sS'Suu5_chi1_WBZT'
p793
S'/SuuToChiChiToWBZTToJets_MSuu-5000_MChi-1000_TuneCP5_13TeV-madgraph-pythia8/RunIISummer20UL18MiniAODv2-106X_upgrade2018_realistic_v16_L1v1-v1/MINIAODSIM\n'
p794
sS'Suu5_chi1p5_WBWB'
p795
S'/SuuToChiChiToWBWBToJets_MSuu-5000_MChi-1500_TuneCP5_13TeV-madgraph-pythia8/RunIISummer20UL18MiniAODv2-106X_upgrade2018_realistic_v16_L1v1-v3/MINIAODSIM\n'
p796
sS'Suu8_chi1_ZTZT'
p797
S'/SuuToChiChiToZTZTToJets_MSuu-8000_MChi-1000_TuneCP5_13TeV-madgraph-pythia8/RunIISummer20UL18MiniAODv2-106X_upgrade2018_realistic_v16_L1v1-v1/MINIAODSIM\n'
p798
sS'Suu8_chi3_HTHT'
p799
S'/SuuToChiChiToHTHTToJets_MSuu-8000_MChi-3000_TuneCP5_13TeV-madgraph-pythia8/RunIISummer20UL18MiniAODv2-106X_upgrade2018_realistic_v16_L1v1-v3/MINIAODSIM\n'
p800
sS'Suu7_chi3_WBWB'
p801
S'/SuuToChiChiToWBWBToJets_MSuu-7000_MChi-3000_TuneCP5_13TeV-madgraph-pythia8/RunIISummer20UL18MiniAODv2-106X_upgrade2018_realistic_v16_L1v1-v3/MINIAODSIM\n'
p802
sS'Suu8_chi3_ZTZT'
p803
S'/SuuToChiChiToZTZTToJets_MSuu-8000_MChi-3000_TuneCP5_13TeV-madgraph-pythia8/RunIISummer20UL18MiniAODv2-106X_upgrade2018_realistic_v16_L1v1-v2/MINIAODSIM\n'
p804
sS'Suu6_chi2p5_HTZT'
p805
S'/SuuToChiChiToHTZTToJets_MSuu-6000_MChi-2500_TuneCP5_13TeV-madgraph-pythia8/RunIISummer20UL18MiniAODv2-106X_upgrade2018_realistic_v16_L1v1-v3/MINIAODSIM\n'
p806
sS'Suu7_chi1_WBWB'
p807
S'/SuuToChiChiToWBWBToJets_MSuu-7000_MChi-1000_TuneCP5_13TeV-madgraph-pythia8/RunIISummer20UL18MiniAODv2-106X_upgrade2018_realistic_v16_L1v1-v1/MINIAODSIM\n'
p808
sS'Suu7_chi2p5_WBZT'
p809
S'/SuuToChiChiToWBZTToJets_MSuu-7000_MChi-2500_TuneCP5_13TeV-madgraph-pythia8/RunIISummer20UL18MiniAODv2-106X_upgrade2018_realistic_v16_L1v1-v1/MINIAODSIM\n'
p810
sS'Suu7_chi1p5_HTHT'
p811
S'/SuuToChiChiToHTHTToJets_MSuu-7000_MChi-1500_TuneCP5_13TeV-madgraph-pythia8/RunIISummer20UL18MiniAODv2-106X_upgrade2018_realistic_v16_L1v1-v3/MINIAODSIM\n'
p812
sS'Suu5_chi1_HTZT'
p813
S'/SuuToChiChiToHTZTToJets_MSuu-5000_MChi-1000_TuneCP5_13TeV-madgraph-pythia8/RunIISummer20UL18MiniAODv2-106X_upgrade2018_realistic_v16_L1v1-v3/MINIAODSIM\n'
p814
sS'Suu6_chi1p5_HTZT'
p815
S'/SuuToChiChiToHTZTToJets_MSuu-6000_MChi-1500_TuneCP5_13TeV-madgraph-pythia8/RunIISummer20UL18MiniAODv2-106X_upgrade2018_realistic_v16_L1v1-v3/MINIAODSIM\n'
p816
sS'Suu8_chi2p5_WBZT'
p817
S'/SuuToChiChiToWBZTToJets_MSuu-8000_MChi-2500_TuneCP5_13TeV-madgraph-pythia8/RunIISummer20UL18MiniAODv2-106X_upgrade2018_realistic_v16_L1v1-v1/MINIAODSIM\n'
p818
sS'Suu5_chi1_WBHT'
p819
S'/SuuToChiChiToWBHTToJets_MSuu-5000_MChi-1000_TuneCP5_13TeV-madgraph-pythia8/RunIISummer20UL18MiniAODv2-106X_upgrade2018_realistic_v16_L1v1-v1/MINIAODSIM\n'
p820
sS'Suu7_chi1p5_WBWB'
p821
S'/SuuToChiChiToWBWBToJets_MSuu-7000_MChi-1500_TuneCP5_13TeV-madgraph-pythia8/RunIISummer20UL18MiniAODv2-106X_upgrade2018_realistic_v16_L1v1-v1/MINIAODSIM\n'
p822
sS'Suu8_chi1p5_HTHT'
p823
S'/SuuToChiChiToHTHTToJets_MSuu-8000_MChi-1500_TuneCP5_13TeV-madgraph-pythia8/RunIISummer20UL18MiniAODv2-106X_upgrade2018_realistic_v16_L1v1-v1/MINIAODSIM\n'
p824
sS'Suu4_chi1_WBZT'
p825
S'/SuuToChiChiToWBZTToJets_MSuu-4000_MChi-1000_TuneCP5_13TeV-madgraph-pythia8/RunIISummer20UL18MiniAODv2-106X_upgrade2018_realistic_v16_L1v1-v1/MINIAODSIM\n'
p826
sS'Suu6_chi2p5_HTHT'
p827
S'/SuuToChiChiToHTHTToJets_MSuu-6000_MChi-2500_TuneCP5_13TeV-madgraph-pythia8/RunIISummer20UL18MiniAODv2-106X_upgrade2018_realistic_v16_L1v1-v3/MINIAODSIM\n'
p828
sS'Suu5_chi2_HTHT'
p829
S'/SuuToChiChiToHTHTToJets_MSuu-5000_MChi-2000_TuneCP5_13TeV-madgraph-pythia8/RunIISummer20UL18MiniAODv2-106X_upgrade2018_realistic_v16_L1v1-v3/MINIAODSIM\n'
p830
sS'Suu6_chi1p5_WBZT'
p831
S'/SuuToChiChiToWBZTToJets_MSuu-6000_MChi-1500_TuneCP5_13TeV-madgraph-pythia8/RunIISummer20UL18MiniAODv2-106X_upgrade2018_realistic_v16_L1v1-v1/MINIAODSIM\n'
p832
sS'Suu8_chi1_WBWB'
p833
S'/SuuToChiChiToWBWBToJets_MSuu-8000_MChi-1000_TuneCP5_13TeV-madgraph-pythia8/RunIISummer20UL18MiniAODv2-106X_upgrade2018_realistic_v16_L1v1-v1/MINIAODSIM\n'
p834
sS'Suu6_chi1_WBWB'
p835
S'/SuuToChiChiToWBWBToJets_MSuu-6000_MChi-1000_TuneCP5_13TeV-madgraph-pythia8/RunIISummer20UL18MiniAODv2-106X_upgrade2018_realistic_v16_L1v1-v1/MINIAODSIM\n'
p836
sS'Suu8_chi2_WBWB'
p837
S'/SuuToChiChiToWBWBToJets_MSuu-8000_MChi-2000_TuneCP5_13TeV-madgraph-pythia8/RunIISummer20UL18MiniAODv2-106X_upgrade2018_realistic_v16_L1v1-v1/MINIAODSIM\n'
p838
sS'Suu6_chi2_ZTZT'
p839
S'/SuuToChiChiToZTZTToJets_MSuu-6000_MChi-2000_TuneCP5_13TeV-madgraph-pythia8/RunIISummer20UL18MiniAODv2-106X_upgrade2018_realistic_v16_L1v1-v2/MINIAODSIM\n'
p840
sS'Suu6_chi2p5_WBWB'
p841
S'/SuuToChiChiToWBWBToJets_MSuu-6000_MChi-2500_TuneCP5_13TeV-madgraph-pythia8/RunIISummer20UL18MiniAODv2-106X_upgrade2018_realistic_v16_L1v1-v3/MINIAODSIM\n'
p842
sS'Suu6_chi1_WBHT'
p843
S'/SuuToChiChiToWBHTToJets_MSuu-6000_MChi-1000_TuneCP5_13TeV-madgraph-pythia8/RunIISummer20UL18MiniAODv2-106X_upgrade2018_realistic_v16_L1v1-v3/MINIAODSIM\n'
p844
sS'Suu7_chi2p5_HTZT'
p845
S'/SuuToChiChiToHTZTToJets_MSuu-7000_MChi-2500_TuneCP5_13TeV-madgraph-pythia8/RunIISummer20UL18MiniAODv2-106X_upgrade2018_realistic_v16_L1v1-v3/MINIAODSIM\n'
p846
sS'Suu8_chi2p5_ZTZT'
p847
S'/SuuToChiChiToZTZTToJets_MSuu-8000_MChi-2500_TuneCP5_13TeV-madgraph-pythia8/RunIISummer20UL18MiniAODv2-106X_upgrade2018_realistic_v16_L1v1-v2/MINIAODSIM\n'
p848
sS'Suu5_chi2_WBHT'
p849
S'/SuuToChiChiToWBHTToJets_MSuu-5000_MChi-2000_TuneCP5_13TeV-madgraph-pythia8/RunIISummer20UL18MiniAODv2-106X_upgrade2018_realistic_v16_L1v1-v1/MINIAODSIM\n'
p850
sS'Suu8_chi2_HTHT'
p851
S'/SuuToChiChiToHTHTToJets_MSuu-8000_MChi-2000_TuneCP5_13TeV-madgraph-pythia8/RunIISummer20UL18MiniAODv2-106X_upgrade2018_realistic_v16_L1v1-v1/MINIAODSIM\n'
p852
sS'Suu7_chi2_HTHT'
p853
S'/SuuToChiChiToHTHTToJets_MSuu-7000_MChi-2000_TuneCP5_13TeV-madgraph-pythia8/RunIISummer20UL18MiniAODv2-106X_upgrade2018_realistic_v16_L1v1-v3/MINIAODSIM\n'
p854
sS'Suu7_chi2_WBZT'
p855
S'/SuuToChiChiToWBZTToJets_MSuu-7000_MChi-2000_TuneCP5_13TeV-madgraph-pythia8/RunIISummer20UL18MiniAODv2-106X_upgrade2018_realistic_v16_L1v1-v3/MINIAODSIM\n'
p856
sS'Suu4_chi1p5_WBZT'
p857
S'/SuuToChiChiToWBZTToJets_MSuu-4000_MChi-1500_TuneCP5_13TeV-madgraph-pythia8/RunIISummer20UL18MiniAODv2-106X_upgrade2018_realistic_v16_L1v1-v3/MINIAODSIM\n'
p858
sS'Suu8_chi1p5_HTZT'
p859
S'/SuuToChiChiToHTZTToJets_MSuu-8000_MChi-1500_TuneCP5_13TeV-madgraph-pythia8/RunIISummer20UL18MiniAODv2-106X_upgrade2018_realistic_v16_L1v1-v2/MINIAODSIM\n'
p860
sS'Suu7_chi1p5_WBHT'
p861
S'/SuuToChiChiToWBHTToJets_MSuu-7000_MChi-1500_TuneCP5_13TeV-madgraph-pythia8/RunIISummer20UL18MiniAODv2-106X_upgrade2018_realistic_v16_L1v1-v3/MINIAODSIM\n'
p862
sS'Suu4_chi1_HTHT'
p863
S'/SuuToChiChiToHTHTToJets_MSuu-4000_MChi-1000_TuneCP5_13TeV-madgraph-pythia8/RunIISummer20UL18MiniAODv2-106X_upgrade2018_realistic_v16_L1v1-v1/MINIAODSIM\n'
p864
sS'Suu7_chi2_WBHT'
p865
S'/SuuToChiChiToWBHTToJets_MSuu-7000_MChi-2000_TuneCP5_13TeV-madgraph-pythia8/RunIISummer20UL18MiniAODv2-106X_upgrade2018_realistic_v16_L1v1-v3/MINIAODSIM\n'
p866
sS'Suu6_chi1p5_HTHT'
p867
S'/SuuToChiChiToHTHTToJets_MSuu-6000_MChi-1500_TuneCP5_13TeV-madgraph-pythia8/RunIISummer20UL18MiniAODv2-106X_upgrade2018_realistic_v16_L1v1-v1/MINIAODSIM\n'
p868
sS'Suu6_chi1p5_WBHT'
p869
S'/SuuToChiChiToWBHTToJets_MSuu-6000_MChi-1500_TuneCP5_13TeV-madgraph-pythia8/RunIISummer20UL18MiniAODv2-106X_upgrade2018_realistic_v16_L1v1-v1/MINIAODSIM\n'
p870
sS'Suu7_chi2_WBWB'
p871
S'/SuuToChiChiToWBWBToJets_MSuu-7000_MChi-2000_TuneCP5_13TeV-madgraph-pythia8/RunIISummer20UL18MiniAODv2-106X_upgrade2018_realistic_v16_L1v1-v3/MINIAODSIM\n'
p872
sS'Suu8_chi2p5_WBHT'
p873
S'/SuuToChiChiToWBHTToJets_MSuu-8000_MChi-2500_TuneCP5_13TeV-madgraph-pythia8/RunIISummer20UL18MiniAODv2-106X_upgrade2018_realistic_v16_L1v1-v3/MINIAODSIM\n'
p874
sS'Suu7_chi1p5_HTZT'
p875
S'/SuuToChiChiToHTZTToJets_MSuu-7000_MChi-1500_TuneCP5_13TeV-madgraph-pythia8/RunIISummer20UL18MiniAODv2-106X_upgrade2018_realistic_v16_L1v1-v3/MINIAODSIM\n'
p876
sS'Suu4_chi1_WBWB'
p877
S'/SuuToChiChiToWBWBToJets_MSuu-4000_MChi-1000_TuneCP5_13TeV-madgraph-pythia8/RunIISummer20UL18MiniAODv2-106X_upgrade2018_realistic_v16_L1v1-v1/MINIAODSIM\n'
p878
sS'Suu5_chi2_HTZT'
p879
S'/SuuToChiChiToHTZTToJets_MSuu-5000_MChi-2000_TuneCP5_13TeV-madgraph-pythia8/RunIISummer20UL18MiniAODv2-106X_upgrade2018_realistic_v16_L1v1-v2/MINIAODSIM\n'
p880
sS'Suu5_chi1_HTHT'
p881
S'/SuuToChiChiToHTHTToJets_MSuu-5000_MChi-1000_TuneCP5_13TeV-madgraph-pythia8/RunIISummer20UL18MiniAODv2-106X_upgrade2018_realistic_v16_L1v1-v1/MINIAODSIM\n'
p882
sS'Suu8_chi2_WBZT'
p883
S'/SuuToChiChiToWBZTToJets_MSuu-8000_MChi-2000_TuneCP5_13TeV-madgraph-pythia8/RunIISummer20UL18MiniAODv2-106X_upgrade2018_realistic_v16_L1v1-v1/MINIAODSIM\n'
p884
sS'Suu5_chi1p5_WBZT'
p885
S'/SuuToChiChiToWBZTToJets_MSuu-5000_MChi-1500_TuneCP5_13TeV-madgraph-pythia8/RunIISummer20UL18MiniAODv2-106X_upgrade2018_realistic_v16_L1v1-v1/MINIAODSIM\n'
p886
sS'Suu5_chi1_ZTZT'
p887
S'/SuuToChiChiToZTZTToJets_MSuu-5000_MChi-1000_TuneCP5_13TeV-madgraph-pythia8/RunIISummer20UL18MiniAODv2-106X_upgrade2018_realistic_v16_L1v1-v1/MINIAODSIM\n'
p888
sS'Suu7_chi1_WBHT'
p889
S'/SuuToChiChiToWBHTToJets_MSuu-7000_MChi-1000_TuneCP5_13TeV-madgraph-pythia8/RunIISummer20UL18MiniAODv2-106X_upgrade2018_realistic_v16_L1v1-v1/MINIAODSIM\n'
p890
sS'Suu5_chi1_WBWB'
p891
S'/SuuToChiChiToWBWBToJets_MSuu-5000_MChi-1000_TuneCP5_13TeV-madgraph-pythia8/RunIISummer20UL18MiniAODv2-106X_upgrade2018_realistic_v16_L1v1-v3/MINIAODSIM\n'
p892
sS'Suu5_chi2_WBZT'
p893
S'/SuuToChiChiToWBZTToJets_MSuu-5000_MChi-2000_TuneCP5_13TeV-madgraph-pythia8/RunIISummer20UL18MiniAODv2-106X_upgrade2018_realistic_v16_L1v1-v1/MINIAODSIM\n'
p894
sS'Suu7_chi2p5_HTHT'
p895
S'/SuuToChiChiToHTHTToJets_MSuu-7000_MChi-2500_TuneCP5_13TeV-madgraph-pythia8/RunIISummer20UL18MiniAODv2-106X_upgrade2018_realistic_v16_L1v1-v2/MINIAODSIM\n'
p896
sS'Suu7_chi2_ZTZT'
p897
S'/SuuToChiChiToZTZTToJets_MSuu-7000_MChi-2000_TuneCP5_13TeV-madgraph-pythia8/RunIISummer20UL18MiniAODv2-106X_upgrade2018_realistic_v16_L1v1-v1/MINIAODSIM\n'
p898
sS'Suu6_chi1_HTZT'
p899
S'/SuuToChiChiToHTZTToJets_MSuu-6000_MChi-1000_TuneCP5_13TeV-madgraph-pythia8/RunIISummer20UL18MiniAODv2-106X_upgrade2018_realistic_v16_L1v1-v3/MINIAODSIM\n'
p900
sS'Suu8_chi1p5_ZTZT'
p901
S'/SuuToChiChiToZTZTToJets_MSuu-8000_MChi-1500_TuneCP5_13TeV-madgraph-pythia8/RunIISummer20UL18MiniAODv2-106X_upgrade2018_realistic_v16_L1v1-v1/MINIAODSIM\n'
p902
sS'Suu7_chi3_HTZT'
p903
S'/SuuToChiChiToHTZTToJets_MSuu-7000_MChi-3000_TuneCP5_13TeV-madgraph-pythia8/RunIISummer20UL18MiniAODv2-106X_upgrade2018_realistic_v16_L1v1-v3/MINIAODSIM\n'
p904
sS'Suu7_chi3_ZTZT'
p905
S'/SuuToChiChiToZTZTToJets_MSuu-7000_MChi-3000_TuneCP5_13TeV-madgraph-pythia8/RunIISummer20UL18MiniAODv2-106X_upgrade2018_realistic_v16_L1v1-v1/MINIAODSIM\n'
p906
sS'Suu6_chi2p5_WBHT'
p907
S'/SuuToChiChiToWBHTToJets_MSuu-6000_MChi-2500_TuneCP5_13TeV-madgraph-pythia8/RunIISummer20UL18MiniAODv2-106X_upgrade2018_realistic_v16_L1v1-v1/MINIAODSIM\n'
p908
sS'Suu7_chi1p5_ZTZT'
p909
S'/SuuToChiChiToZTZTToJets_MSuu-7000_MChi-1500_TuneCP5_13TeV-madgraph-pythia8/RunIISummer20UL18MiniAODv2-106X_upgrade2018_realistic_v16_L1v1-v1/MINIAODSIM\n'
p910
sS'Suu8_chi3_WBZT'
p911
S'/SuuToChiChiToWBZTToJets_MSuu-8000_MChi-3000_TuneCP5_13TeV-madgraph-pythia8/RunIISummer20UL18MiniAODv2-106X_upgrade2018_realistic_v16_L1v1-v1/MINIAODSIM\n'
p912
sS'Suu6_chi1_ZTZT'
p913
S'/SuuToChiChiToZTZTToJets_MSuu-6000_MChi-1000_TuneCP5_13TeV-madgraph-pythia8/RunIISummer20UL18MiniAODv2-106X_upgrade2018_realistic_v16_L1v1-v3/MINIAODSIM\n'
p914
sS'Suu8_chi1p5_WBWB'
p915
S'/SuuToChiChiToWBWBToJets_MSuu-8000_MChi-1500_TuneCP5_13TeV-madgraph-pythia8/RunIISummer20UL18MiniAODv2-106X_upgrade2018_realistic_v16_L1v1-v1/MINIAODSIM\n'
p916
sS'Suu6_chi2_WBZT'
p917
S'/SuuToChiChiToWBZTToJets_MSuu-6000_MChi-2000_TuneCP5_13TeV-madgraph-pythia8/RunIISummer20UL18MiniAODv2-106X_upgrade2018_realistic_v16_L1v1-v1/MINIAODSIM\n'
p918
sS'Suu8_chi1p5_WBHT'
p919
S'/SuuToChiChiToWBHTToJets_MSuu-8000_MChi-1500_TuneCP5_13TeV-madgraph-pythia8/RunIISummer20UL18MiniAODv2-106X_upgrade2018_realistic_v16_L1v1-v1/MINIAODSIM\n'
p920
ss.