(dp0
S'2015'
p1
(dp2
S'Suu6_chi2_WBHT'
p3
S'/store/mc/RunIISummer20UL16MiniAODAPVv2/SuuToChiChiToHTHTToJets_MSuu-4000_MChi-1000_TuneCP5_13TeV-madgraph-pythia8/MINIAODSIM/106X_mcRun2_asymptotic_preVFP_v11-v1/60000/EF8D3226-9665-FF42-8F73-20E1B71B2703.root'
p4
sS'Suu8_chi2p5_WBWB'
p5
g4
sS'Suu6_chi2_WBWB'
p6
g4
sS'Suu4_chi1p5_WBWB'
p7
g4
sS'Suu7_chi1_WBZT'
p8
g4
sS'Suu8_chi2p5_HTHT'
p9
g4
sS'Suu8_chi3_WBWB'
p10
g4
sS'Suu6_chi1p5_WBWB'
p11
g4
sS'Suu6_chi1_WBZT'
p12
g4
sS'Suu7_chi3_WBHT'
p13
g4
sS'Suu4_chi1p5_HTZT'
p14
g4
sS'Suu8_chi1p5_WBZT'
p15
g4
sS'Suu7_chi1_ZTZT'
p16
g4
sS'Suu8_chi1_HTHT'
p17
g4
sS'Suu7_chi2_HTZT'
p18
g4
sS'Suu7_chi1p5_WBZT'
p19
g4
sS'Suu8_chi1_WBZT'
p20
g4
sS'Suu5_chi2_ZTZT'
p21
g4
sS'Suu8_chi2_ZTZT'
p22
g4
sS'Suu8_chi2p5_HTZT'
p23
g4
sS'Suu4_chi1p5_HTHT'
p24
g4
sS'Suu8_chi1_WBHT'
p25
g4
sS'Suu8_chi3_WBHT'
p26
g4
sS'Suu7_chi1_HTHT'
p27
g4
sS'Suu7_chi2p5_WBHT'
p28
g4
sS'Suu7_chi3_HTHT'
p29
g4
sS'Suu4_chi1_HTZT'
p30
g4
sS'Suu6_chi1_HTHT'
p31
g4
sS'Suu4_chi1_ZTZT'
p32
g4
sS'Suu5_chi1p5_HTZT'
p33
g4
sS'Suu5_chi1p5_WBHT'
p34
g4
sS'Suu7_chi3_WBZT'
p35
g4
sS'Suu6_chi2_HTHT'
p36
g4
sS'Suu5_chi1p5_ZTZT'
p37
g4
sS'Suu6_chi1p5_ZTZT'
p38
g4
sS'Suu4_chi1p5_ZTZT'
p39
g4
sS'Suu8_chi2_HTZT'
p40
g4
sS'Suu8_chi3_HTZT'
p41
g4
sS'Suu6_chi2p5_ZTZT'
p42
g4
sS'Suu7_chi1_HTZT'
p43
g4
sS'Suu6_chi2p5_WBZT'
p44
g4
sS'Suu6_chi2_HTZT'
p45
g4
sS'Suu4_chi1p5_WBHT'
p46
g4
sS'Suu5_chi1p5_HTHT'
p47
g4
sS'Suu5_chi2_WBWB'
p48
g4
sS'Suu8_chi1_HTZT'
p49
g4
sS'Suu4_chi1_WBHT'
p50
g4
sS'Suu7_chi2p5_WBWB'
p51
g4
sS'Suu8_chi2_WBHT'
p52
g4
sS'Suu7_chi2p5_ZTZT'
p53
g4
sS'Suu5_chi1_WBZT'
p54
g4
sS'Suu5_chi1p5_WBWB'
p55
g4
sS'Suu8_chi1_ZTZT'
p56
g4
sS'Suu8_chi3_HTHT'
p57
g4
sS'Suu7_chi3_WBWB'
p58
g4
sS'Suu8_chi3_ZTZT'
p59
g4
sS'Suu6_chi2p5_HTZT'
p60
g4
sS'Suu7_chi1_WBWB'
p61
g4
sS'Suu7_chi2p5_WBZT'
p62
g4
sS'Suu7_chi1p5_HTHT'
p63
g4
sS'Suu5_chi1_HTZT'
p64
g4
sS'Suu6_chi1p5_HTZT'
p65
g4
sS'Suu8_chi2p5_WBZT'
p66
g4
sS'Suu5_chi1_WBHT'
p67
g4
sS'Suu7_chi1p5_WBWB'
p68
g4
sS'Suu8_chi1p5_HTHT'
p69
g4
sS'Suu4_chi1_WBZT'
p70
g4
sS'Suu6_chi2p5_HTHT'
p71
g4
sS'Suu5_chi2_HTHT'
p72
g4
sS'Suu6_chi1p5_WBZT'
p73
g4
sS'Suu8_chi1_WBWB'
p74
g4
sS'Suu6_chi1_WBWB'
p75
g4
sS'Suu8_chi2_WBWB'
p76
g4
sS'Suu6_chi2_ZTZT'
p77
g4
sS'Suu6_chi2p5_WBWB'
p78
g4
sS'Suu6_chi1_WBHT'
p79
g4
sS'Suu7_chi2p5_HTZT'
p80
g4
sS'Suu8_chi2p5_ZTZT'
p81
g4
sS'Suu5_chi2_WBHT'
p82
g4
sS'Suu8_chi2_HTHT'
p83
g4
sS'Suu7_chi2_HTHT'
p84
g4
sS'Suu7_chi2_WBZT'
p85
g4
sS'Suu4_chi1p5_WBZT'
p86
g4
sS'Suu8_chi1p5_HTZT'
p87
g4
sS'Suu7_chi1p5_WBHT'
p88
g4
sS'Suu4_chi1_HTHT'
p89
g4
sS'Suu7_chi2_WBHT'
p90
g4
sS'Suu6_chi1p5_HTHT'
p91
g4
sS'Suu6_chi1p5_WBHT'
p92
g4
sS'Suu7_chi2_WBWB'
p93
g4
sS'Suu8_chi2p5_WBHT'
p94
g4
sS'Suu7_chi1p5_HTZT'
p95
g4
sS'Suu4_chi1_WBWB'
p96
g4
sS'Suu5_chi2_HTZT'
p97
g4
sS'Suu5_chi1_HTHT'
p98
g4
sS'Suu8_chi2_WBZT'
p99
g4
sS'Suu5_chi1p5_WBZT'
p100
g4
sS'Suu5_chi1_ZTZT'
p101
g4
sS'Suu7_chi1_WBHT'
p102
g4
sS'Suu5_chi1_WBWB'
p103
g4
sS'Suu5_chi2_WBZT'
p104
g4
sS'Suu7_chi2p5_HTHT'
p105
g4
sS'Suu7_chi2_ZTZT'
p106
g4
sS'Suu6_chi1_HTZT'
p107
g4
sS'Suu8_chi1p5_ZTZT'
p108
g4
sS'Suu7_chi3_HTZT'
p109
g4
sS'Suu7_chi3_ZTZT'
p110
g4
sS'Suu6_chi2p5_WBHT'
p111
g4
sS'Suu7_chi1p5_ZTZT'
p112
g4
sS'Suu8_chi3_WBZT'
p113
g4
sS'Suu6_chi1_ZTZT'
p114
g4
sS'Suu8_chi1p5_WBWB'
p115
g4
sS'Suu6_chi2_WBZT'
p116
g4
sS'Suu8_chi1p5_WBHT'
p117
g4
ssS'2017'
p118
(dp119
S'Suu6_chi2_WBHT'
p120
S'/store/mc/RunIISummer20UL17MiniAODv2/SuuToChiChiToHTHTToJets_MSuu-4000_MChi-1000_TuneCP5_13TeV-madgraph-pythia8/MINIAODSIM/106X_mc2017_realistic_v9-v3/50000/5734DEE6-8D26-704A-BFA9-E8976034C7F0.root'
p121
sS'Suu8_chi2p5_WBWB'
p122
g121
sS'Suu6_chi2_WBWB'
p123
g121
sS'Suu4_chi1p5_WBWB'
p124
g121
sS'Suu7_chi1_WBZT'
p125
g121
sS'Suu8_chi2p5_HTHT'
p126
g121
sS'Suu8_chi3_WBWB'
p127
g121
sS'Suu6_chi1p5_WBWB'
p128
g121
sS'Suu6_chi1_WBZT'
p129
g121
sS'Suu7_chi3_WBHT'
p130
g121
sS'Suu4_chi1p5_HTZT'
p131
g121
sS'Suu8_chi1p5_WBZT'
p132
g121
sS'Suu7_chi1_ZTZT'
p133
g121
sS'Suu8_chi1_HTHT'
p134
g121
sS'Suu7_chi2_HTZT'
p135
g121
sS'Suu7_chi1p5_WBZT'
p136
g121
sS'Suu8_chi1_WBZT'
p137
g121
sS'Suu5_chi2_ZTZT'
p138
g121
sS'Suu8_chi2_ZTZT'
p139
g121
sS'Suu8_chi2p5_HTZT'
p140
g121
sS'Suu4_chi1p5_HTHT'
p141
g121
sS'Suu8_chi1_WBHT'
p142
g121
sS'Suu8_chi3_WBHT'
p143
g121
sS'Suu7_chi1_HTHT'
p144
g121
sS'Suu7_chi2p5_WBHT'
p145
g121
sS'Suu7_chi3_HTHT'
p146
g121
sS'Suu4_chi1_HTZT'
p147
g121
sS'Suu6_chi1_HTHT'
p148
g121
sS'Suu4_chi1_ZTZT'
p149
g121
sS'Suu5_chi1p5_HTZT'
p150
g121
sS'Suu5_chi1p5_WBHT'
p151
g121
sS'Suu7_chi3_WBZT'
p152
g121
sS'Suu6_chi2_HTHT'
p153
g121
sS'Suu5_chi1p5_ZTZT'
p154
g121
sS'Suu6_chi1p5_ZTZT'
p155
g121
sS'Suu4_chi1p5_ZTZT'
p156
g121
sS'Suu8_chi2_HTZT'
p157
g121
sS'Suu8_chi3_HTZT'
p158
g121
sS'Suu6_chi2p5_ZTZT'
p159
g121
sS'Suu7_chi1_HTZT'
p160
g121
sS'Suu6_chi2p5_WBZT'
p161
g121
sS'Suu6_chi2_HTZT'
p162
g121
sS'Suu4_chi1p5_WBHT'
p163
g121
sS'Suu5_chi1p5_HTHT'
p164
g121
sS'Suu5_chi2_WBWB'
p165
g121
sS'Suu8_chi1_HTZT'
p166
g121
sS'Suu4_chi1_WBHT'
p167
g121
sS'Suu7_chi2p5_WBWB'
p168
g121
sS'Suu8_chi2_WBHT'
p169
g121
sS'Suu7_chi2p5_ZTZT'
p170
g121
sS'Suu5_chi1_WBZT'
p171
g121
sS'Suu5_chi1p5_WBWB'
p172
g121
sS'Suu8_chi1_ZTZT'
p173
g121
sS'Suu8_chi3_HTHT'
p174
g121
sS'Suu7_chi3_WBWB'
p175
g121
sS'Suu8_chi3_ZTZT'
p176
g121
sS'Suu6_chi2p5_HTZT'
p177
g121
sS'Suu7_chi1_WBWB'
p178
g121
sS'Suu7_chi2p5_WBZT'
p179
g121
sS'Suu7_chi1p5_HTHT'
p180
g121
sS'Suu5_chi1_HTZT'
p181
g121
sS'Suu6_chi1p5_HTZT'
p182
g121
sS'Suu8_chi2p5_WBZT'
p183
g121
sS'Suu5_chi1_WBHT'
p184
g121
sS'Suu7_chi1p5_WBWB'
p185
g121
sS'Suu8_chi1p5_HTHT'
p186
g121
sS'Suu4_chi1_WBZT'
p187
g121
sS'Suu6_chi2p5_HTHT'
p188
g121
sS'Suu5_chi2_HTHT'
p189
g121
sS'Suu6_chi1p5_WBZT'
p190
g121
sS'Suu8_chi1_WBWB'
p191
g121
sS'Suu6_chi1_WBWB'
p192
g121
sS'Suu8_chi2_WBWB'
p193
g121
sS'Suu6_chi2_ZTZT'
p194
g121
sS'Suu6_chi2p5_WBWB'
p195
g121
sS'Suu6_chi1_WBHT'
p196
g121
sS'Suu7_chi2p5_HTZT'
p197
g121
sS'Suu8_chi2p5_ZTZT'
p198
g121
sS'Suu5_chi2_WBHT'
p199
g121
sS'Suu8_chi2_HTHT'
p200
g121
sS'Suu7_chi2_HTHT'
p201
g121
sS'Suu7_chi2_WBZT'
p202
g121
sS'Suu4_chi1p5_WBZT'
p203
g121
sS'Suu8_chi1p5_HTZT'
p204
g121
sS'Suu7_chi1p5_WBHT'
p205
g121
sS'Suu4_chi1_HTHT'
p206
g121
sS'Suu7_chi2_WBHT'
p207
g121
sS'Suu6_chi1p5_HTHT'
p208
g121
sS'Suu6_chi1p5_WBHT'
p209
g121
sS'Suu7_chi2_WBWB'
p210
g121
sS'Suu8_chi2p5_WBHT'
p211
g121
sS'Suu7_chi1p5_HTZT'
p212
g121
sS'Suu4_chi1_WBWB'
p213
g121
sS'Suu5_chi2_HTZT'
p214
g121
sS'Suu5_chi1_HTHT'
p215
g121
sS'Suu8_chi2_WBZT'
p216
g121
sS'Suu5_chi1p5_WBZT'
p217
g121
sS'Suu5_chi1_ZTZT'
p218
g121
sS'Suu7_chi1_WBHT'
p219
g121
sS'Suu5_chi1_WBWB'
p220
g121
sS'Suu5_chi2_WBZT'
p221
g121
sS'Suu7_chi2p5_HTHT'
p222
g121
sS'Suu7_chi2_ZTZT'
p223
g121
sS'Suu6_chi1_HTZT'
p224
g121
sS'Suu8_chi1p5_ZTZT'
p225
g121
sS'Suu7_chi3_HTZT'
p226
g121
sS'Suu7_chi3_ZTZT'
p227
g121
sS'Suu6_chi2p5_WBHT'
p228
g121
sS'Suu7_chi1p5_ZTZT'
p229
g121
sS'Suu8_chi3_WBZT'
p230
g121
sS'Suu6_chi1_ZTZT'
p231
g121
sS'Suu8_chi1p5_WBWB'
p232
g121
sS'Suu6_chi2_WBZT'
p233
g121
sS'Suu8_chi1p5_WBHT'
p234
g121
ssS'2016'
p235
(dp236
S'Suu6_chi2_WBHT'
p237
S'/store/mc/RunIISummer20UL16MiniAODv2/SuuToChiChiToHTHTToJets_MSuu-4000_MChi-1000_TuneCP5_13TeV-madgraph-pythia8/MINIAODSIM/106X_mcRun2_asymptotic_v17-v1/2550000/AC2EE404-F819-CE4D-AB22-7BE35E278E18.root'
p238
sS'Suu8_chi2p5_WBWB'
p239
g238
sS'Suu6_chi2_WBWB'
p240
g238
sS'Suu4_chi1p5_WBWB'
p241
g238
sS'Suu7_chi1_WBZT'
p242
g238
sS'Suu8_chi2p5_HTHT'
p243
g238
sS'Suu8_chi3_WBWB'
p244
g238
sS'Suu6_chi1p5_WBWB'
p245
g238
sS'Suu6_chi1_WBZT'
p246
g238
sS'Suu7_chi3_WBHT'
p247
g238
sS'Suu4_chi1p5_HTZT'
p248
g238
sS'Suu8_chi1p5_WBZT'
p249
g238
sS'Suu7_chi1_ZTZT'
p250
g238
sS'Suu8_chi1_HTHT'
p251
g238
sS'Suu7_chi2_HTZT'
p252
g238
sS'Suu7_chi1p5_WBZT'
p253
g238
sS'Suu8_chi1_WBZT'
p254
g238
sS'Suu5_chi2_ZTZT'
p255
g238
sS'Suu8_chi2_ZTZT'
p256
g238
sS'Suu8_chi2p5_HTZT'
p257
g238
sS'Suu4_chi1p5_HTHT'
p258
g238
sS'Suu8_chi1_WBHT'
p259
g238
sS'Suu8_chi3_WBHT'
p260
g238
sS'Suu7_chi1_HTHT'
p261
g238
sS'Suu7_chi2p5_WBHT'
p262
g238
sS'Suu7_chi3_HTHT'
p263
g238
sS'Suu4_chi1_HTZT'
p264
g238
sS'Suu6_chi1_HTHT'
p265
g238
sS'Suu4_chi1_ZTZT'
p266
g238
sS'Suu5_chi1p5_HTZT'
p267
g238
sS'Suu5_chi1p5_WBHT'
p268
g238
sS'Suu7_chi3_WBZT'
p269
g238
sS'Suu6_chi2_HTHT'
p270
g238
sS'Suu5_chi1p5_ZTZT'
p271
g238
sS'Suu6_chi1p5_ZTZT'
p272
g238
sS'Suu4_chi1p5_ZTZT'
p273
g238
sS'Suu8_chi2_HTZT'
p274
g238
sS'Suu8_chi3_HTZT'
p275
g238
sS'Suu6_chi2p5_ZTZT'
p276
g238
sS'Suu7_chi1_HTZT'
p277
g238
sS'Suu6_chi2p5_WBZT'
p278
g238
sS'Suu6_chi2_HTZT'
p279
g238
sS'Suu4_chi1p5_WBHT'
p280
g238
sS'Suu5_chi1p5_HTHT'
p281
g238
sS'Suu5_chi2_WBWB'
p282
g238
sS'Suu8_chi1_HTZT'
p283
g238
sS'Suu4_chi1_WBHT'
p284
g238
sS'Suu7_chi2p5_WBWB'
p285
g238
sS'Suu8_chi2_WBHT'
p286
g238
sS'Suu7_chi2p5_ZTZT'
p287
g238
sS'Suu5_chi1_WBZT'
p288
g238
sS'Suu5_chi1p5_WBWB'
p289
g238
sS'Suu8_chi1_ZTZT'
p290
g238
sS'Suu8_chi3_HTHT'
p291
g238
sS'Suu7_chi3_WBWB'
p292
g238
sS'Suu8_chi3_ZTZT'
p293
g238
sS'Suu6_chi2p5_HTZT'
p294
g238
sS'Suu7_chi1_WBWB'
p295
g238
sS'Suu7_chi2p5_WBZT'
p296
g238
sS'Suu7_chi1p5_HTHT'
p297
g238
sS'Suu5_chi1_HTZT'
p298
g238
sS'Suu6_chi1p5_HTZT'
p299
g238
sS'Suu8_chi2p5_WBZT'
p300
g238
sS'Suu5_chi1_WBHT'
p301
g238
sS'Suu7_chi1p5_WBWB'
p302
g238
sS'Suu8_chi1p5_HTHT'
p303
g238
sS'Suu4_chi1_WBZT'
p304
g238
sS'Suu6_chi2p5_HTHT'
p305
g238
sS'Suu5_chi2_HTHT'
p306
g238
sS'Suu6_chi1p5_WBZT'
p307
g238
sS'Suu8_chi1_WBWB'
p308
g238
sS'Suu6_chi1_WBWB'
p309
g238
sS'Suu8_chi2_WBWB'
p310
g238
sS'Suu6_chi2_ZTZT'
p311
g238
sS'Suu6_chi2p5_WBWB'
p312
g238
sS'Suu6_chi1_WBHT'
p313
g238
sS'Suu7_chi2p5_HTZT'
p314
g238
sS'Suu8_chi2p5_ZTZT'
p315
g238
sS'Suu5_chi2_WBHT'
p316
g238
sS'Suu8_chi2_HTHT'
p317
g238
sS'Suu7_chi2_HTHT'
p318
g238
sS'Suu7_chi2_WBZT'
p319
g238
sS'Suu4_chi1p5_WBZT'
p320
g238
sS'Suu8_chi1p5_HTZT'
p321
g238
sS'Suu7_chi1p5_WBHT'
p322
g238
sS'Suu4_chi1_HTHT'
p323
g238
sS'Suu7_chi2_WBHT'
p324
g238
sS'Suu6_chi1p5_HTHT'
p325
g238
sS'Suu6_chi1p5_WBHT'
p326
g238
sS'Suu7_chi2_WBWB'
p327
g238
sS'Suu8_chi2p5_WBHT'
p328
g238
sS'Suu7_chi1p5_HTZT'
p329
g238
sS'Suu4_chi1_WBWB'
p330
g238
sS'Suu5_chi2_HTZT'
p331
g238
sS'Suu5_chi1_HTHT'
p332
g238
sS'Suu8_chi2_WBZT'
p333
g238
sS'Suu5_chi1p5_WBZT'
p334
g238
sS'Suu5_chi1_ZTZT'
p335
g238
sS'Suu7_chi1_WBHT'
p336
g238
sS'Suu5_chi1_WBWB'
p337
g238
sS'Suu5_chi2_WBZT'
p338
g238
sS'Suu7_chi2p5_HTHT'
p339
g238
sS'Suu7_chi2_ZTZT'
p340
g238
sS'Suu6_chi1_HTZT'
p341
g238
sS'Suu8_chi1p5_ZTZT'
p342
g238
sS'Suu7_chi3_HTZT'
p343
g238
sS'Suu7_chi3_ZTZT'
p344
g238
sS'Suu6_chi2p5_WBHT'
p345
g238
sS'Suu7_chi1p5_ZTZT'
p346
g238
sS'Suu8_chi3_WBZT'
p347
g238
sS'Suu6_chi1_ZTZT'
p348
g238
sS'Suu8_chi1p5_WBWB'
p349
g238
sS'Suu6_chi2_WBZT'
p350
g238
sS'Suu8_chi1p5_WBHT'
p351
g238
ssS'2018'
p352
(dp353
S'Suu6_chi2_WBHT'
p354
S'/store/mc/RunIISummer20UL18MiniAODv2/SuuToChiChiToHTHTToJets_MSuu-4000_MChi-1000_TuneCP5_13TeV-madgraph-pythia8/MINIAODSIM/106X_upgrade2018_realistic_v16_L1v1-v1/2550000/73C711C9-0871-1143-9C3E-D2EA21C33C71.root'
p355
sS'Suu8_chi2p5_WBWB'
p356
g355
sS'Suu6_chi2_WBWB'
p357
g355
sS'Suu4_chi1p5_WBWB'
p358
g355
sS'Suu7_chi1_WBZT'
p359
g355
sS'Suu8_chi2p5_HTHT'
p360
g355
sS'Suu8_chi3_WBWB'
p361
g355
sS'Suu6_chi1p5_WBWB'
p362
g355
sS'Suu6_chi1_WBZT'
p363
g355
sS'Suu7_chi3_WBHT'
p364
g355
sS'Suu4_chi1p5_HTZT'
p365
g355
sS'Suu8_chi1p5_WBZT'
p366
g355
sS'Suu7_chi1_ZTZT'
p367
g355
sS'Suu8_chi1_HTHT'
p368
g355
sS'Suu7_chi2_HTZT'
p369
g355
sS'Suu7_chi1p5_WBZT'
p370
g355
sS'Suu8_chi1_WBZT'
p371
g355
sS'Suu5_chi2_ZTZT'
p372
g355
sS'Suu8_chi2_ZTZT'
p373
g355
sS'Suu8_chi2p5_HTZT'
p374
g355
sS'Suu4_chi1p5_HTHT'
p375
g355
sS'Suu8_chi1_WBHT'
p376
g355
sS'Suu8_chi3_WBHT'
p377
g355
sS'Suu7_chi1_HTHT'
p378
g355
sS'Suu7_chi2p5_WBHT'
p379
g355
sS'Suu7_chi3_HTHT'
p380
g355
sS'Suu4_chi1_HTZT'
p381
g355
sS'Suu6_chi1_HTHT'
p382
g355
sS'Suu4_chi1_ZTZT'
p383
g355
sS'Suu5_chi1p5_HTZT'
p384
g355
sS'Suu5_chi1p5_WBHT'
p385
g355
sS'Suu7_chi3_WBZT'
p386
g355
sS'Suu6_chi2_HTHT'
p387
g355
sS'Suu5_chi1p5_ZTZT'
p388
g355
sS'Suu6_chi1p5_ZTZT'
p389
g355
sS'Suu4_chi1p5_ZTZT'
p390
g355
sS'Suu8_chi2_HTZT'
p391
g355
sS'Suu8_chi3_HTZT'
p392
g355
sS'Suu6_chi2p5_ZTZT'
p393
g355
sS'Suu7_chi1_HTZT'
p394
g355
sS'Suu6_chi2p5_WBZT'
p395
g355
sS'Suu6_chi2_HTZT'
p396
g355
sS'Suu4_chi1p5_WBHT'
p397
g355
sS'Suu5_chi1p5_HTHT'
p398
g355
sS'Suu5_chi2_WBWB'
p399
g355
sS'Suu8_chi1_HTZT'
p400
g355
sS'Suu4_chi1_WBHT'
p401
g355
sS'Suu7_chi2p5_WBWB'
p402
g355
sS'Suu8_chi2_WBHT'
p403
g355
sS'Suu7_chi2p5_ZTZT'
p404
g355
sS'Suu5_chi1_WBZT'
p405
g355
sS'Suu5_chi1p5_WBWB'
p406
g355
sS'Suu8_chi1_ZTZT'
p407
g355
sS'Suu8_chi3_HTHT'
p408
g355
sS'Suu7_chi3_WBWB'
p409
g355
sS'Suu8_chi3_ZTZT'
p410
g355
sS'Suu6_chi2p5_HTZT'
p411
g355
sS'Suu7_chi1_WBWB'
p412
g355
sS'Suu7_chi2p5_WBZT'
p413
g355
sS'Suu7_chi1p5_HTHT'
p414
g355
sS'Suu5_chi1_HTZT'
p415
g355
sS'Suu6_chi1p5_HTZT'
p416
g355
sS'Suu8_chi2p5_WBZT'
p417
g355
sS'Suu5_chi1_WBHT'
p418
g355
sS'Suu7_chi1p5_WBWB'
p419
g355
sS'Suu8_chi1p5_HTHT'
p420
g355
sS'Suu4_chi1_WBZT'
p421
g355
sS'Suu6_chi2p5_HTHT'
p422
g355
sS'Suu5_chi2_HTHT'
p423
g355
sS'Suu6_chi1p5_WBZT'
p424
g355
sS'Suu8_chi1_WBWB'
p425
g355
sS'Suu6_chi1_WBWB'
p426
g355
sS'Suu8_chi2_WBWB'
p427
g355
sS'Suu6_chi2_ZTZT'
p428
g355
sS'Suu6_chi2p5_WBWB'
p429
g355
sS'Suu6_chi1_WBHT'
p430
g355
sS'Suu7_chi2p5_HTZT'
p431
g355
sS'Suu8_chi2p5_ZTZT'
p432
g355
sS'Suu5_chi2_WBHT'
p433
g355
sS'Suu8_chi2_HTHT'
p434
g355
sS'Suu7_chi2_HTHT'
p435
g355
sS'Suu7_chi2_WBZT'
p436
g355
sS'Suu4_chi1p5_WBZT'
p437
g355
sS'Suu8_chi1p5_HTZT'
p438
g355
sS'Suu7_chi1p5_WBHT'
p439
g355
sS'Suu4_chi1_HTHT'
p440
g355
sS'Suu7_chi2_WBHT'
p441
g355
sS'Suu6_chi1p5_HTHT'
p442
g355
sS'Suu6_chi1p5_WBHT'
p443
g355
sS'Suu7_chi2_WBWB'
p444
g355
sS'Suu8_chi2p5_WBHT'
p445
g355
sS'Suu7_chi1p5_HTZT'
p446
g355
sS'Suu4_chi1_WBWB'
p447
g355
sS'Suu5_chi2_HTZT'
p448
g355
sS'Suu5_chi1_HTHT'
p449
g355
sS'Suu8_chi2_WBZT'
p450
g355
sS'Suu5_chi1p5_WBZT'
p451
g355
sS'Suu5_chi1_ZTZT'
p452
g355
sS'Suu7_chi1_WBHT'
p453
g355
sS'Suu5_chi1_WBWB'
p454
g355
sS'Suu5_chi2_WBZT'
p455
g355
sS'Suu7_chi2p5_HTHT'
p456
g355
sS'Suu7_chi2_ZTZT'
p457
g355
sS'Suu6_chi1_HTZT'
p458
g355
sS'Suu8_chi1p5_ZTZT'
p459
g355
sS'Suu7_chi3_HTZT'
p460
g355
sS'Suu7_chi3_ZTZT'
p461
g355
sS'Suu6_chi2p5_WBHT'
p462
g355
sS'Suu7_chi1p5_ZTZT'
p463
g355
sS'Suu8_chi3_WBZT'
p464
g355
sS'Suu6_chi1_ZTZT'
p465
g355
sS'Suu8_chi1p5_WBWB'
p466
g355
sS'Suu6_chi2_WBZT'
p467
g355
sS'Suu8_chi1p5_WBHT'
p468
g355
ss.